
/Users/cxt/Reposities/ArmNeonOptimization/armAssembly/build_android/CMakeFiles/assemblyEx2Rgb2Gray.dir/assemblyEx2Rgb2Gray.cpp.o:     file format elf64-littleaarch64


Disassembly of section .text.stbi_failure_reason:

0000000000000000 <stbi_failure_reason>:
   0:	90000008 	adrp	x8, 0 <stbi_failure_reason>
   4:	f9400100 	ldr	x0, [x8]
   8:	d65f03c0 	ret

Disassembly of section .text.stbi_image_free:

0000000000000000 <stbi_image_free>:
   0:	14000000 	b	0 <free>

Disassembly of section .text.stbi_set_flip_vertically_on_load:

0000000000000000 <stbi_set_flip_vertically_on_load>:
   0:	90000008 	adrp	x8, 0 <stbi_set_flip_vertically_on_load>
   4:	b9000100 	str	w0, [x8]
   8:	d65f03c0 	ret

Disassembly of section .text.stbi_load:

0000000000000000 <stbi_load>:
   0:	d10503ff 	sub	sp, sp, #0x140
   4:	f90073fc 	str	x28, [sp,#224]
   8:	a90f67fa 	stp	x26, x25, [sp,#240]
   c:	a9105ff8 	stp	x24, x23, [sp,#256]
  10:	a91157f6 	stp	x22, x21, [sp,#272]
  14:	a9124ff4 	stp	x20, x19, [sp,#288]
  18:	a9137bfd 	stp	x29, x30, [sp,#304]
  1c:	9104c3fd 	add	x29, sp, #0x130
  20:	d53bd059 	mrs	x25, tpidr_el0
  24:	f9401728 	ldr	x8, [x25,#40]
  28:	aa0103f7 	mov	x23, x1
  2c:	90000001 	adrp	x1, 0 <stbi_load>
  30:	91000021 	add	x1, x1, #0x0
  34:	2a0403f4 	mov	w20, w4
  38:	aa0303f5 	mov	x21, x3
  3c:	aa0203f6 	mov	x22, x2
  40:	f81a83a8 	stur	x8, [x29,#-88]
  44:	94000000 	bl	0 <fopen>
  48:	b40002c0 	cbz	x0, a0 <stbi_load+0xa0>
  4c:	90000008 	adrp	x8, 0 <stbi_load>
  50:	91000108 	add	x8, x8, #0x0
  54:	3dc00100 	ldr	q0, [x8]
  58:	f9400908 	ldr	x8, [x8,#16]
  5c:	90000009 	adrp	x9, 0 <stbi_load>
  60:	fd400121 	ldr	d1, [x9]
  64:	3d8007e0 	str	q0, [sp,#16]
  68:	a90203e8 	stp	x8, x0, [sp,#32]
  6c:	f9400be8 	ldr	x8, [sp,#16]
  70:	910003fa 	mov	x26, sp
  74:	9100e358 	add	x24, x26, #0x38
  78:	52801002 	mov	w2, #0x80                  	// #128
  7c:	aa1803e1 	mov	x1, x24
  80:	aa0003f3 	mov	x19, x0
  84:	fd001be1 	str	d1, [sp,#48]
  88:	f90067f8 	str	x24, [sp,#200]
  8c:	d63f0100 	blr	x8
  90:	340001c0 	cbz	w0, c8 <stbi_load+0xc8>
  94:	8b20c348 	add	x8, x26, w0, sxtw
  98:	9100e108 	add	x8, x8, #0x38
  9c:	1400000e 	b	d4 <stbi_load+0xd4>
  a0:	90000009 	adrp	x9, 0 <stbi_load>
  a4:	90000008 	adrp	x8, 0 <stbi_load>
  a8:	91000129 	add	x9, x9, #0x0
  ac:	aa1f03f4 	mov	x20, xzr
  b0:	f9000109 	str	x9, [x8]
  b4:	f9401728 	ldr	x8, [x25,#40]
  b8:	f85a83a9 	ldur	x9, [x29,#-88]
  bc:	eb09011f 	cmp	x8, x9
  c0:	540003a0 	b.eq	134 <stbi_load+0x134>
  c4:	14000025 	b	158 <stbi_load+0x158>
  c8:	b90033ff 	str	wzr, [sp,#48]
  cc:	9100e748 	add	x8, x26, #0x39
  d0:	3900e3ff 	strb	wzr, [sp,#56]
  d4:	910003e0 	mov	x0, sp
  d8:	aa1703e1 	mov	x1, x23
  dc:	aa1603e2 	mov	x2, x22
  e0:	aa1503e3 	mov	x3, x21
  e4:	2a1403e4 	mov	w4, w20
  e8:	a90ba3f8 	stp	x24, x8, [sp,#184]
  ec:	f9006be8 	str	x8, [sp,#208]
  f0:	94000000 	bl	0 <stbi_load>
  f4:	aa0003f4 	mov	x20, x0
  f8:	b4000120 	cbz	x0, 11c <stbi_load+0x11c>
  fc:	b940c3e8 	ldr	w8, [sp,#192]
 100:	b940bbe9 	ldr	w9, [sp,#184]
 104:	52800022 	mov	w2, #0x1                   	// #1
 108:	aa1303e0 	mov	x0, x19
 10c:	4b090108 	sub	w8, w8, w9
 110:	cb0883e8 	neg	x8, x8, lsl #32
 114:	9360fd01 	asr	x1, x8, #32
 118:	94000000 	bl	0 <fseek>
 11c:	aa1303e0 	mov	x0, x19
 120:	94000000 	bl	0 <fclose>
 124:	f9401728 	ldr	x8, [x25,#40]
 128:	f85a83a9 	ldur	x9, [x29,#-88]
 12c:	eb09011f 	cmp	x8, x9
 130:	54000141 	b.ne	158 <stbi_load+0x158>
 134:	aa1403e0 	mov	x0, x20
 138:	a9537bfd 	ldp	x29, x30, [sp,#304]
 13c:	a9524ff4 	ldp	x20, x19, [sp,#288]
 140:	a95157f6 	ldp	x22, x21, [sp,#272]
 144:	a9505ff8 	ldp	x24, x23, [sp,#256]
 148:	a94f67fa 	ldp	x26, x25, [sp,#240]
 14c:	f94073fc 	ldr	x28, [sp,#224]
 150:	910503ff 	add	sp, sp, #0x140
 154:	d65f03c0 	ret
 158:	94000000 	bl	0 <__stack_chk_fail>

Disassembly of section .text.stbi_load_from_file:

0000000000000000 <stbi_load_from_file>:
   0:	d10503ff 	sub	sp, sp, #0x140
   4:	f90073fc 	str	x28, [sp,#224]
   8:	a90f67fa 	stp	x26, x25, [sp,#240]
   c:	a9105ff8 	stp	x24, x23, [sp,#256]
  10:	a91157f6 	stp	x22, x21, [sp,#272]
  14:	a9124ff4 	stp	x20, x19, [sp,#288]
  18:	a9137bfd 	stp	x29, x30, [sp,#304]
  1c:	9104c3fd 	add	x29, sp, #0x130
  20:	90000008 	adrp	x8, 0 <stbi_load_from_file>
  24:	d53bd059 	mrs	x25, tpidr_el0
  28:	91000108 	add	x8, x8, #0x0
  2c:	f940172a 	ldr	x10, [x25,#40]
  30:	3dc00100 	ldr	q0, [x8]
  34:	f9400908 	ldr	x8, [x8,#16]
  38:	90000009 	adrp	x9, 0 <stbi_load_from_file>
  3c:	f81a83aa 	stur	x10, [x29,#-88]
  40:	3d8007e0 	str	q0, [sp,#16]
  44:	fd400121 	ldr	d1, [x9]
  48:	a90203e8 	stp	x8, x0, [sp,#32]
  4c:	f9400be8 	ldr	x8, [sp,#16]
  50:	910003fa 	mov	x26, sp
  54:	9100e358 	add	x24, x26, #0x38
  58:	aa0203f6 	mov	x22, x2
  5c:	aa0103f7 	mov	x23, x1
  60:	52801002 	mov	w2, #0x80                  	// #128
  64:	aa1803e1 	mov	x1, x24
  68:	2a0403f4 	mov	w20, w4
  6c:	aa0303f5 	mov	x21, x3
  70:	aa0003f3 	mov	x19, x0
  74:	fd001be1 	str	d1, [sp,#48]
  78:	f90067f8 	str	x24, [sp,#200]
  7c:	d63f0100 	blr	x8
  80:	34000080 	cbz	w0, 90 <stbi_load_from_file+0x90>
  84:	8b20c348 	add	x8, x26, w0, sxtw
  88:	9100e108 	add	x8, x8, #0x38
  8c:	14000004 	b	9c <stbi_load_from_file+0x9c>
  90:	b90033ff 	str	wzr, [sp,#48]
  94:	9100e748 	add	x8, x26, #0x39
  98:	3900e3ff 	strb	wzr, [sp,#56]
  9c:	910003e0 	mov	x0, sp
  a0:	aa1703e1 	mov	x1, x23
  a4:	aa1603e2 	mov	x2, x22
  a8:	aa1503e3 	mov	x3, x21
  ac:	2a1403e4 	mov	w4, w20
  b0:	a90ba3f8 	stp	x24, x8, [sp,#184]
  b4:	f9006be8 	str	x8, [sp,#208]
  b8:	94000000 	bl	0 <stbi_load_from_file>
  bc:	aa0003f4 	mov	x20, x0
  c0:	b4000120 	cbz	x0, e4 <stbi_load_from_file+0xe4>
  c4:	b940c3e8 	ldr	w8, [sp,#192]
  c8:	b940bbe9 	ldr	w9, [sp,#184]
  cc:	52800022 	mov	w2, #0x1                   	// #1
  d0:	aa1303e0 	mov	x0, x19
  d4:	4b090108 	sub	w8, w8, w9
  d8:	cb0883e8 	neg	x8, x8, lsl #32
  dc:	9360fd01 	asr	x1, x8, #32
  e0:	94000000 	bl	0 <fseek>
  e4:	f9401728 	ldr	x8, [x25,#40]
  e8:	f85a83a9 	ldur	x9, [x29,#-88]
  ec:	eb09011f 	cmp	x8, x9
  f0:	54000141 	b.ne	118 <stbi_load_from_file+0x118>
  f4:	aa1403e0 	mov	x0, x20
  f8:	a9537bfd 	ldp	x29, x30, [sp,#304]
  fc:	a9524ff4 	ldp	x20, x19, [sp,#288]
 100:	a95157f6 	ldp	x22, x21, [sp,#272]
 104:	a9505ff8 	ldp	x24, x23, [sp,#256]
 108:	a94f67fa 	ldp	x26, x25, [sp,#240]
 10c:	f94073fc 	ldr	x28, [sp,#224]
 110:	910503ff 	add	sp, sp, #0x140
 114:	d65f03c0 	ret
 118:	94000000 	bl	0 <__stack_chk_fail>

Disassembly of section .text._ZL31stbi__load_and_postprocess_8bitP13stbi__contextPiS1_S1_i:

0000000000000000 <_ZL31stbi__load_and_postprocess_8bitP13stbi__contextPiS1_S1_i>:
   0:	d101c3ff 	sub	sp, sp, #0x70
   4:	a90267fa 	stp	x26, x25, [sp,#32]
   8:	a9035ff8 	stp	x24, x23, [sp,#48]
   c:	a90457f6 	stp	x22, x21, [sp,#64]
  10:	a9054ff4 	stp	x20, x19, [sp,#80]
  14:	a9067bfd 	stp	x29, x30, [sp,#96]
  18:	910183fd 	add	x29, sp, #0x60
  1c:	d53bd059 	mrs	x25, tpidr_el0
  20:	f9401728 	ldr	x8, [x25,#40]
  24:	910023e5 	add	x5, sp, #0x8
  28:	52800106 	mov	w6, #0x8                   	// #8
  2c:	2a0403f3 	mov	w19, w4
  30:	aa0303f6 	mov	x22, x3
  34:	aa0203f4 	mov	x20, x2
  38:	aa0103f5 	mov	x21, x1
  3c:	f9000fe8 	str	x8, [sp,#24]
  40:	94000000 	bl	0 <_ZL31stbi__load_and_postprocess_8bitP13stbi__contextPiS1_S1_i>
  44:	aa0003f7 	mov	x23, x0
  48:	b4000720 	cbz	x0, 12c <_ZL31stbi__load_and_postprocess_8bitP13stbi__contextPiS1_S1_i+0x12c>
  4c:	b9400be8 	ldr	w8, [sp,#8]
  50:	7100211f 	cmp	w8, #0x8
  54:	54000580 	b.eq	104 <_ZL31stbi__load_and_postprocess_8bitP13stbi__contextPiS1_S1_i+0x104>
  58:	7100411f 	cmp	w8, #0x10
  5c:	54000a01 	b.ne	19c <_ZL31stbi__load_and_postprocess_8bitP13stbi__contextPiS1_S1_i+0x19c>
  60:	b94002a8 	ldr	w8, [x21]
  64:	b9400289 	ldr	w9, [x20]
  68:	2a1303ea 	mov	w10, w19
  6c:	35000053 	cbnz	w19, 74 <_ZL31stbi__load_and_postprocess_8bitP13stbi__contextPiS1_S1_i+0x74>
  70:	b94002ca 	ldr	w10, [x22]
  74:	1b087d28 	mul	w8, w9, w8
  78:	1b0a7d1a 	mul	w26, w8, w10
  7c:	93407f40 	sxtw	x0, w26
  80:	94000000 	bl	0 <malloc>
  84:	aa0003f8 	mov	x24, x0
  88:	b4000300 	cbz	x0, e8 <_ZL31stbi__load_and_postprocess_8bitP13stbi__contextPiS1_S1_i+0xe8>
  8c:	7100075f 	cmp	w26, #0x1
  90:	5400026b 	b.lt	dc <_ZL31stbi__load_and_postprocess_8bitP13stbi__contextPiS1_S1_i+0xdc>
  94:	71003f5f 	cmp	w26, #0xf
  98:	2a1a03e8 	mov	w8, w26
  9c:	540000e9 	b.ls	b8 <_ZL31stbi__load_and_postprocess_8bitP13stbi__contextPiS1_S1_i+0xb8>
  a0:	8b0806e9 	add	x9, x23, x8, lsl #1
  a4:	eb09031f 	cmp	x24, x9
  a8:	540005a2 	b.cs	15c <_ZL31stbi__load_and_postprocess_8bitP13stbi__contextPiS1_S1_i+0x15c>
  ac:	8b080309 	add	x9, x24, x8
  b0:	eb0902ff 	cmp	x23, x9
  b4:	54000542 	b.cs	15c <_ZL31stbi__load_and_postprocess_8bitP13stbi__contextPiS1_S1_i+0x15c>
  b8:	aa1f03e9 	mov	x9, xzr
  bc:	cb090108 	sub	x8, x8, x9
  c0:	8b09030a 	add	x10, x24, x9
  c4:	8b0906e9 	add	x9, x23, x9, lsl #1
  c8:	3940052b 	ldrb	w11, [x9,#1]
  cc:	f1000508 	subs	x8, x8, #0x1
  d0:	91000929 	add	x9, x9, #0x2
  d4:	3800154b 	strb	w11, [x10],#1
  d8:	54ffff81 	b.ne	c8 <_ZL31stbi__load_and_postprocess_8bitP13stbi__contextPiS1_S1_i+0xc8>
  dc:	aa1703e0 	mov	x0, x23
  e0:	94000000 	bl	0 <free>
  e4:	14000005 	b	f8 <_ZL31stbi__load_and_postprocess_8bitP13stbi__contextPiS1_S1_i+0xf8>
  e8:	90000009 	adrp	x9, 0 <_ZL31stbi__load_and_postprocess_8bitP13stbi__contextPiS1_S1_i>
  ec:	90000008 	adrp	x8, 0 <_ZL31stbi__load_and_postprocess_8bitP13stbi__contextPiS1_S1_i>
  f0:	91000129 	add	x9, x9, #0x0
  f4:	f9000109 	str	x9, [x8]
  f8:	52800108 	mov	w8, #0x8                   	// #8
  fc:	aa1803f7 	mov	x23, x24
 100:	b9000be8 	str	w8, [sp,#8]
 104:	90000008 	adrp	x8, 0 <_ZL31stbi__load_and_postprocess_8bitP13stbi__contextPiS1_S1_i>
 108:	b9400108 	ldr	w8, [x8]
 10c:	34000108 	cbz	w8, 12c <_ZL31stbi__load_and_postprocess_8bitP13stbi__contextPiS1_S1_i+0x12c>
 110:	35000053 	cbnz	w19, 118 <_ZL31stbi__load_and_postprocess_8bitP13stbi__contextPiS1_S1_i+0x118>
 114:	b94002d3 	ldr	w19, [x22]
 118:	b94002a1 	ldr	w1, [x21]
 11c:	b9400282 	ldr	w2, [x20]
 120:	aa1703e0 	mov	x0, x23
 124:	2a1303e3 	mov	w3, w19
 128:	94000000 	bl	0 <_ZL31stbi__load_and_postprocess_8bitP13stbi__contextPiS1_S1_i>
 12c:	f9401728 	ldr	x8, [x25,#40]
 130:	f9400fe9 	ldr	x9, [sp,#24]
 134:	eb09011f 	cmp	x8, x9
 138:	54000301 	b.ne	198 <_ZL31stbi__load_and_postprocess_8bitP13stbi__contextPiS1_S1_i+0x198>
 13c:	aa1703e0 	mov	x0, x23
 140:	a9467bfd 	ldp	x29, x30, [sp,#96]
 144:	a9454ff4 	ldp	x20, x19, [sp,#80]
 148:	a94457f6 	ldp	x22, x21, [sp,#64]
 14c:	a9435ff8 	ldp	x24, x23, [sp,#48]
 150:	a94267fa 	ldp	x26, x25, [sp,#32]
 154:	9101c3ff 	add	sp, sp, #0x70
 158:	d65f03c0 	ret
 15c:	927c6d09 	and	x9, x8, #0xfffffff0
 160:	910042ea 	add	x10, x23, #0x10
 164:	9100230b 	add	x11, x24, #0x8
 168:	aa0903ec 	mov	x12, x9
 16c:	ad7f8540 	ldp	q0, q1, [x10,#-16]
 170:	9100814a 	add	x10, x10, #0x20
 174:	f100418c 	subs	x12, x12, #0x10
 178:	0f088400 	shrn	v0.8b, v0.8h, #8
 17c:	0f088421 	shrn	v1.8b, v1.8h, #8
 180:	6d3f8560 	stp	d0, d1, [x11,#-8]
 184:	9100416b 	add	x11, x11, #0x10
 188:	54ffff21 	b.ne	16c <_ZL31stbi__load_and_postprocess_8bitP13stbi__contextPiS1_S1_i+0x16c>
 18c:	eb08013f 	cmp	x9, x8
 190:	54fff961 	b.ne	bc <_ZL31stbi__load_and_postprocess_8bitP13stbi__contextPiS1_S1_i+0xbc>
 194:	17ffffd2 	b	dc <_ZL31stbi__load_and_postprocess_8bitP13stbi__contextPiS1_S1_i+0xdc>
 198:	94000000 	bl	0 <__stack_chk_fail>
 19c:	90000000 	adrp	x0, 0 <_ZL31stbi__load_and_postprocess_8bitP13stbi__contextPiS1_S1_i>
 1a0:	90000002 	adrp	x2, 0 <_ZL31stbi__load_and_postprocess_8bitP13stbi__contextPiS1_S1_i>
 1a4:	90000003 	adrp	x3, 0 <_ZL31stbi__load_and_postprocess_8bitP13stbi__contextPiS1_S1_i>
 1a8:	91000000 	add	x0, x0, #0x0
 1ac:	91000042 	add	x2, x2, #0x0
 1b0:	91000063 	add	x3, x3, #0x0
 1b4:	52808d01 	mov	w1, #0x468                 	// #1128
 1b8:	94000000 	bl	0 <__assert2>

Disassembly of section .text.stbi_load_from_file_16:

0000000000000000 <stbi_load_from_file_16>:
   0:	d10503ff 	sub	sp, sp, #0x140
   4:	f90073fc 	str	x28, [sp,#224]
   8:	a90f67fa 	stp	x26, x25, [sp,#240]
   c:	a9105ff8 	stp	x24, x23, [sp,#256]
  10:	a91157f6 	stp	x22, x21, [sp,#272]
  14:	a9124ff4 	stp	x20, x19, [sp,#288]
  18:	a9137bfd 	stp	x29, x30, [sp,#304]
  1c:	9104c3fd 	add	x29, sp, #0x130
  20:	90000008 	adrp	x8, 0 <stbi_load_from_file_16>
  24:	d53bd059 	mrs	x25, tpidr_el0
  28:	91000108 	add	x8, x8, #0x0
  2c:	f940172a 	ldr	x10, [x25,#40]
  30:	3dc00100 	ldr	q0, [x8]
  34:	f9400908 	ldr	x8, [x8,#16]
  38:	90000009 	adrp	x9, 0 <stbi_load_from_file_16>
  3c:	f81a83aa 	stur	x10, [x29,#-88]
  40:	3d8007e0 	str	q0, [sp,#16]
  44:	fd400121 	ldr	d1, [x9]
  48:	a90203e8 	stp	x8, x0, [sp,#32]
  4c:	f9400be8 	ldr	x8, [sp,#16]
  50:	910003fa 	mov	x26, sp
  54:	9100e358 	add	x24, x26, #0x38
  58:	aa0203f6 	mov	x22, x2
  5c:	aa0103f7 	mov	x23, x1
  60:	52801002 	mov	w2, #0x80                  	// #128
  64:	aa1803e1 	mov	x1, x24
  68:	2a0403f4 	mov	w20, w4
  6c:	aa0303f5 	mov	x21, x3
  70:	aa0003f3 	mov	x19, x0
  74:	fd001be1 	str	d1, [sp,#48]
  78:	f90067f8 	str	x24, [sp,#200]
  7c:	d63f0100 	blr	x8
  80:	34000080 	cbz	w0, 90 <stbi_load_from_file_16+0x90>
  84:	8b20c348 	add	x8, x26, w0, sxtw
  88:	9100e108 	add	x8, x8, #0x38
  8c:	14000004 	b	9c <stbi_load_from_file_16+0x9c>
  90:	b90033ff 	str	wzr, [sp,#48]
  94:	9100e748 	add	x8, x26, #0x39
  98:	3900e3ff 	strb	wzr, [sp,#56]
  9c:	910003e0 	mov	x0, sp
  a0:	aa1703e1 	mov	x1, x23
  a4:	aa1603e2 	mov	x2, x22
  a8:	aa1503e3 	mov	x3, x21
  ac:	2a1403e4 	mov	w4, w20
  b0:	a90ba3f8 	stp	x24, x8, [sp,#184]
  b4:	f9006be8 	str	x8, [sp,#208]
  b8:	94000000 	bl	0 <stbi_load_from_file_16>
  bc:	aa0003f4 	mov	x20, x0
  c0:	b4000120 	cbz	x0, e4 <stbi_load_from_file_16+0xe4>
  c4:	b940c3e8 	ldr	w8, [sp,#192]
  c8:	b940bbe9 	ldr	w9, [sp,#184]
  cc:	52800022 	mov	w2, #0x1                   	// #1
  d0:	aa1303e0 	mov	x0, x19
  d4:	4b090108 	sub	w8, w8, w9
  d8:	cb0883e8 	neg	x8, x8, lsl #32
  dc:	9360fd01 	asr	x1, x8, #32
  e0:	94000000 	bl	0 <fseek>
  e4:	f9401728 	ldr	x8, [x25,#40]
  e8:	f85a83a9 	ldur	x9, [x29,#-88]
  ec:	eb09011f 	cmp	x8, x9
  f0:	54000141 	b.ne	118 <stbi_load_from_file_16+0x118>
  f4:	aa1403e0 	mov	x0, x20
  f8:	a9537bfd 	ldp	x29, x30, [sp,#304]
  fc:	a9524ff4 	ldp	x20, x19, [sp,#288]
 100:	a95157f6 	ldp	x22, x21, [sp,#272]
 104:	a9505ff8 	ldp	x24, x23, [sp,#256]
 108:	a94f67fa 	ldp	x26, x25, [sp,#240]
 10c:	f94073fc 	ldr	x28, [sp,#224]
 110:	910503ff 	add	sp, sp, #0x140
 114:	d65f03c0 	ret
 118:	94000000 	bl	0 <__stack_chk_fail>

Disassembly of section .text._ZL32stbi__load_and_postprocess_16bitP13stbi__contextPiS1_S1_i:

0000000000000000 <_ZL32stbi__load_and_postprocess_16bitP13stbi__contextPiS1_S1_i>:
   0:	d101c3ff 	sub	sp, sp, #0x70
   4:	a90267fa 	stp	x26, x25, [sp,#32]
   8:	a9035ff8 	stp	x24, x23, [sp,#48]
   c:	a90457f6 	stp	x22, x21, [sp,#64]
  10:	a9054ff4 	stp	x20, x19, [sp,#80]
  14:	a9067bfd 	stp	x29, x30, [sp,#96]
  18:	910183fd 	add	x29, sp, #0x60
  1c:	d53bd059 	mrs	x25, tpidr_el0
  20:	f9401728 	ldr	x8, [x25,#40]
  24:	910023e5 	add	x5, sp, #0x8
  28:	52800206 	mov	w6, #0x10                  	// #16
  2c:	2a0403f3 	mov	w19, w4
  30:	aa0303f6 	mov	x22, x3
  34:	aa0203f4 	mov	x20, x2
  38:	aa0103f5 	mov	x21, x1
  3c:	f9000fe8 	str	x8, [sp,#24]
  40:	94000000 	bl	0 <_ZL32stbi__load_and_postprocess_16bitP13stbi__contextPiS1_S1_i>
  44:	aa0003f7 	mov	x23, x0
  48:	b4000840 	cbz	x0, 150 <_ZL32stbi__load_and_postprocess_16bitP13stbi__contextPiS1_S1_i+0x150>
  4c:	b9400be8 	ldr	w8, [sp,#8]
  50:	7100211f 	cmp	w8, #0x8
  54:	54000240 	b.eq	9c <_ZL32stbi__load_and_postprocess_16bitP13stbi__contextPiS1_S1_i+0x9c>
  58:	7100411f 	cmp	w8, #0x10
  5c:	54000b81 	b.ne	1cc <_ZL32stbi__load_and_postprocess_16bitP13stbi__contextPiS1_S1_i+0x1cc>
  60:	90000008 	adrp	x8, 0 <_ZL32stbi__load_and_postprocess_16bitP13stbi__contextPiS1_S1_i>
  64:	b9400108 	ldr	w8, [x8]
  68:	34000748 	cbz	w8, 150 <_ZL32stbi__load_and_postprocess_16bitP13stbi__contextPiS1_S1_i+0x150>
  6c:	35000053 	cbnz	w19, 74 <_ZL32stbi__load_and_postprocess_16bitP13stbi__contextPiS1_S1_i+0x74>
  70:	b94002d3 	ldr	w19, [x22]
  74:	b94002a1 	ldr	w1, [x21]
  78:	b9400282 	ldr	w2, [x20]
  7c:	531f7a63 	lsl	w3, w19, #1
  80:	aa1703e0 	mov	x0, x23
  84:	94000000 	bl	0 <_ZL32stbi__load_and_postprocess_16bitP13stbi__contextPiS1_S1_i>
  88:	f9401728 	ldr	x8, [x25,#40]
  8c:	f9400fe9 	ldr	x9, [sp,#24]
  90:	eb09011f 	cmp	x8, x9
  94:	54000660 	b.eq	160 <_ZL32stbi__load_and_postprocess_16bitP13stbi__contextPiS1_S1_i+0x160>
  98:	1400004c 	b	1c8 <_ZL32stbi__load_and_postprocess_16bitP13stbi__contextPiS1_S1_i+0x1c8>
  9c:	b94002a8 	ldr	w8, [x21]
  a0:	b9400289 	ldr	w9, [x20]
  a4:	2a1303ea 	mov	w10, w19
  a8:	35000053 	cbnz	w19, b0 <_ZL32stbi__load_and_postprocess_16bitP13stbi__contextPiS1_S1_i+0xb0>
  ac:	b94002ca 	ldr	w10, [x22]
  b0:	1b087d28 	mul	w8, w9, w8
  b4:	1b0a7d1a 	mul	w26, w8, w10
  b8:	531f7b48 	lsl	w8, w26, #1
  bc:	93407d00 	sxtw	x0, w8
  c0:	94000000 	bl	0 <malloc>
  c4:	aa0003f8 	mov	x24, x0
  c8:	b4000300 	cbz	x0, 128 <_ZL32stbi__load_and_postprocess_16bitP13stbi__contextPiS1_S1_i+0x128>
  cc:	7100075f 	cmp	w26, #0x1
  d0:	5400026b 	b.lt	11c <_ZL32stbi__load_and_postprocess_16bitP13stbi__contextPiS1_S1_i+0x11c>
  d4:	71003f5f 	cmp	w26, #0xf
  d8:	2a1a03e8 	mov	w8, w26
  dc:	540000e9 	b.ls	f8 <_ZL32stbi__load_and_postprocess_16bitP13stbi__contextPiS1_S1_i+0xf8>
  e0:	8b0802e9 	add	x9, x23, x8
  e4:	eb09031f 	cmp	x24, x9
  e8:	540004c2 	b.cs	180 <_ZL32stbi__load_and_postprocess_16bitP13stbi__contextPiS1_S1_i+0x180>
  ec:	8b080709 	add	x9, x24, x8, lsl #1
  f0:	eb0902ff 	cmp	x23, x9
  f4:	54000462 	b.cs	180 <_ZL32stbi__load_and_postprocess_16bitP13stbi__contextPiS1_S1_i+0x180>
  f8:	aa1f03e9 	mov	x9, xzr
  fc:	cb090108 	sub	x8, x8, x9
 100:	8b09070a 	add	x10, x24, x9, lsl #1
 104:	8b0902e9 	add	x9, x23, x9
 108:	3840152b 	ldrb	w11, [x9],#1
 10c:	f1000508 	subs	x8, x8, #0x1
 110:	33181d6b 	bfi	w11, w11, #8, #8
 114:	7800254b 	strh	w11, [x10],#2
 118:	54ffff81 	b.ne	108 <_ZL32stbi__load_and_postprocess_16bitP13stbi__contextPiS1_S1_i+0x108>
 11c:	aa1703e0 	mov	x0, x23
 120:	94000000 	bl	0 <free>
 124:	14000005 	b	138 <_ZL32stbi__load_and_postprocess_16bitP13stbi__contextPiS1_S1_i+0x138>
 128:	90000009 	adrp	x9, 0 <_ZL32stbi__load_and_postprocess_16bitP13stbi__contextPiS1_S1_i>
 12c:	90000008 	adrp	x8, 0 <_ZL32stbi__load_and_postprocess_16bitP13stbi__contextPiS1_S1_i>
 130:	91000129 	add	x9, x9, #0x0
 134:	f9000109 	str	x9, [x8]
 138:	52800208 	mov	w8, #0x10                  	// #16
 13c:	aa1803f7 	mov	x23, x24
 140:	b9000be8 	str	w8, [sp,#8]
 144:	90000008 	adrp	x8, 0 <_ZL32stbi__load_and_postprocess_16bitP13stbi__contextPiS1_S1_i>
 148:	b9400108 	ldr	w8, [x8]
 14c:	35fff908 	cbnz	w8, 6c <_ZL32stbi__load_and_postprocess_16bitP13stbi__contextPiS1_S1_i+0x6c>
 150:	f9401728 	ldr	x8, [x25,#40]
 154:	f9400fe9 	ldr	x9, [sp,#24]
 158:	eb09011f 	cmp	x8, x9
 15c:	54000361 	b.ne	1c8 <_ZL32stbi__load_and_postprocess_16bitP13stbi__contextPiS1_S1_i+0x1c8>
 160:	aa1703e0 	mov	x0, x23
 164:	a9467bfd 	ldp	x29, x30, [sp,#96]
 168:	a9454ff4 	ldp	x20, x19, [sp,#80]
 16c:	a94457f6 	ldp	x22, x21, [sp,#64]
 170:	a9435ff8 	ldp	x24, x23, [sp,#48]
 174:	a94267fa 	ldp	x26, x25, [sp,#32]
 178:	9101c3ff 	add	sp, sp, #0x70
 17c:	d65f03c0 	ret
 180:	927c6d09 	and	x9, x8, #0xfffffff0
 184:	910022ea 	add	x10, x23, #0x8
 188:	9100430b 	add	x11, x24, #0x10
 18c:	4f00e420 	movi	v0.16b, #0x1
 190:	aa0903ec 	mov	x12, x9
 194:	6d7f8941 	ldp	d1, d2, [x10,#-8]
 198:	9100414a 	add	x10, x10, #0x10
 19c:	f100418c 	subs	x12, x12, #0x10
 1a0:	2f08a421 	uxtl	v1.8h, v1.8b
 1a4:	2f08a442 	uxtl	v2.8h, v2.8b
 1a8:	4e609c21 	mul	v1.8h, v1.8h, v0.8h
 1ac:	4e609c42 	mul	v2.8h, v2.8h, v0.8h
 1b0:	ad3f8961 	stp	q1, q2, [x11,#-16]
 1b4:	9100816b 	add	x11, x11, #0x20
 1b8:	54fffee1 	b.ne	194 <_ZL32stbi__load_and_postprocess_16bitP13stbi__contextPiS1_S1_i+0x194>
 1bc:	eb08013f 	cmp	x9, x8
 1c0:	54fff9e1 	b.ne	fc <_ZL32stbi__load_and_postprocess_16bitP13stbi__contextPiS1_S1_i+0xfc>
 1c4:	17ffffd6 	b	11c <_ZL32stbi__load_and_postprocess_16bitP13stbi__contextPiS1_S1_i+0x11c>
 1c8:	94000000 	bl	0 <__stack_chk_fail>
 1cc:	90000000 	adrp	x0, 0 <_ZL32stbi__load_and_postprocess_16bitP13stbi__contextPiS1_S1_i>
 1d0:	90000002 	adrp	x2, 0 <_ZL32stbi__load_and_postprocess_16bitP13stbi__contextPiS1_S1_i>
 1d4:	90000003 	adrp	x3, 0 <_ZL32stbi__load_and_postprocess_16bitP13stbi__contextPiS1_S1_i>
 1d8:	91000000 	add	x0, x0, #0x0
 1dc:	91000042 	add	x2, x2, #0x0
 1e0:	91000063 	add	x3, x3, #0x0
 1e4:	52809001 	mov	w1, #0x480                 	// #1152
 1e8:	94000000 	bl	0 <__assert2>

Disassembly of section .text.stbi_load_16:

0000000000000000 <stbi_load_16>:
   0:	d10503ff 	sub	sp, sp, #0x140
   4:	f90073fc 	str	x28, [sp,#224]
   8:	a90f67fa 	stp	x26, x25, [sp,#240]
   c:	a9105ff8 	stp	x24, x23, [sp,#256]
  10:	a91157f6 	stp	x22, x21, [sp,#272]
  14:	a9124ff4 	stp	x20, x19, [sp,#288]
  18:	a9137bfd 	stp	x29, x30, [sp,#304]
  1c:	9104c3fd 	add	x29, sp, #0x130
  20:	d53bd059 	mrs	x25, tpidr_el0
  24:	f9401728 	ldr	x8, [x25,#40]
  28:	aa0103f7 	mov	x23, x1
  2c:	90000001 	adrp	x1, 0 <stbi_load_16>
  30:	91000021 	add	x1, x1, #0x0
  34:	2a0403f4 	mov	w20, w4
  38:	aa0303f5 	mov	x21, x3
  3c:	aa0203f6 	mov	x22, x2
  40:	f81a83a8 	stur	x8, [x29,#-88]
  44:	94000000 	bl	0 <fopen>
  48:	b40002c0 	cbz	x0, a0 <stbi_load_16+0xa0>
  4c:	90000008 	adrp	x8, 0 <stbi_load_16>
  50:	91000108 	add	x8, x8, #0x0
  54:	3dc00100 	ldr	q0, [x8]
  58:	f9400908 	ldr	x8, [x8,#16]
  5c:	90000009 	adrp	x9, 0 <stbi_load_16>
  60:	fd400121 	ldr	d1, [x9]
  64:	3d8007e0 	str	q0, [sp,#16]
  68:	a90203e8 	stp	x8, x0, [sp,#32]
  6c:	f9400be8 	ldr	x8, [sp,#16]
  70:	910003fa 	mov	x26, sp
  74:	9100e358 	add	x24, x26, #0x38
  78:	52801002 	mov	w2, #0x80                  	// #128
  7c:	aa1803e1 	mov	x1, x24
  80:	aa0003f3 	mov	x19, x0
  84:	fd001be1 	str	d1, [sp,#48]
  88:	f90067f8 	str	x24, [sp,#200]
  8c:	d63f0100 	blr	x8
  90:	340001c0 	cbz	w0, c8 <stbi_load_16+0xc8>
  94:	8b20c348 	add	x8, x26, w0, sxtw
  98:	9100e108 	add	x8, x8, #0x38
  9c:	1400000e 	b	d4 <stbi_load_16+0xd4>
  a0:	90000009 	adrp	x9, 0 <stbi_load_16>
  a4:	90000008 	adrp	x8, 0 <stbi_load_16>
  a8:	91000129 	add	x9, x9, #0x0
  ac:	aa1f03f4 	mov	x20, xzr
  b0:	f9000109 	str	x9, [x8]
  b4:	f9401728 	ldr	x8, [x25,#40]
  b8:	f85a83a9 	ldur	x9, [x29,#-88]
  bc:	eb09011f 	cmp	x8, x9
  c0:	540003a0 	b.eq	134 <stbi_load_16+0x134>
  c4:	14000025 	b	158 <stbi_load_16+0x158>
  c8:	b90033ff 	str	wzr, [sp,#48]
  cc:	9100e748 	add	x8, x26, #0x39
  d0:	3900e3ff 	strb	wzr, [sp,#56]
  d4:	910003e0 	mov	x0, sp
  d8:	aa1703e1 	mov	x1, x23
  dc:	aa1603e2 	mov	x2, x22
  e0:	aa1503e3 	mov	x3, x21
  e4:	2a1403e4 	mov	w4, w20
  e8:	a90ba3f8 	stp	x24, x8, [sp,#184]
  ec:	f9006be8 	str	x8, [sp,#208]
  f0:	94000000 	bl	0 <stbi_load_16>
  f4:	aa0003f4 	mov	x20, x0
  f8:	b4000120 	cbz	x0, 11c <stbi_load_16+0x11c>
  fc:	b940c3e8 	ldr	w8, [sp,#192]
 100:	b940bbe9 	ldr	w9, [sp,#184]
 104:	52800022 	mov	w2, #0x1                   	// #1
 108:	aa1303e0 	mov	x0, x19
 10c:	4b090108 	sub	w8, w8, w9
 110:	cb0883e8 	neg	x8, x8, lsl #32
 114:	9360fd01 	asr	x1, x8, #32
 118:	94000000 	bl	0 <fseek>
 11c:	aa1303e0 	mov	x0, x19
 120:	94000000 	bl	0 <fclose>
 124:	f9401728 	ldr	x8, [x25,#40]
 128:	f85a83a9 	ldur	x9, [x29,#-88]
 12c:	eb09011f 	cmp	x8, x9
 130:	54000141 	b.ne	158 <stbi_load_16+0x158>
 134:	aa1403e0 	mov	x0, x20
 138:	a9537bfd 	ldp	x29, x30, [sp,#304]
 13c:	a9524ff4 	ldp	x20, x19, [sp,#288]
 140:	a95157f6 	ldp	x22, x21, [sp,#272]
 144:	a9505ff8 	ldp	x24, x23, [sp,#256]
 148:	a94f67fa 	ldp	x26, x25, [sp,#240]
 14c:	f94073fc 	ldr	x28, [sp,#224]
 150:	910503ff 	add	sp, sp, #0x140
 154:	d65f03c0 	ret
 158:	94000000 	bl	0 <__stack_chk_fail>

Disassembly of section .text.stbi_load_16_from_memory:

0000000000000000 <stbi_load_16_from_memory>:
   0:	d10403ff 	sub	sp, sp, #0x100
   4:	f90073f3 	str	x19, [sp,#224]
   8:	a90f7bfd 	stp	x29, x30, [sp,#240]
   c:	9103c3fd 	add	x29, sp, #0xf0
  10:	d53bd053 	mrs	x19, tpidr_el0
  14:	f9401668 	ldr	x8, [x19,#40]
  18:	8b21c009 	add	x9, x0, w1, sxtw
  1c:	aa0203e1 	mov	x1, x2
  20:	aa0303e2 	mov	x2, x3
  24:	f81e83a8 	stur	x8, [x29,#-24]
  28:	a90ca7e0 	stp	x0, x9, [sp,#200]
  2c:	a90ba7e0 	stp	x0, x9, [sp,#184]
  30:	910003e0 	mov	x0, sp
  34:	aa0403e3 	mov	x3, x4
  38:	2a0503e4 	mov	w4, w5
  3c:	f9000bff 	str	xzr, [sp,#16]
  40:	b90033ff 	str	wzr, [sp,#48]
  44:	94000000 	bl	0 <stbi_load_16_from_memory>
  48:	f9401668 	ldr	x8, [x19,#40]
  4c:	f85e83a9 	ldur	x9, [x29,#-24]
  50:	eb09011f 	cmp	x8, x9
  54:	540000a1 	b.ne	68 <stbi_load_16_from_memory+0x68>
  58:	a94f7bfd 	ldp	x29, x30, [sp,#240]
  5c:	f94073f3 	ldr	x19, [sp,#224]
  60:	910403ff 	add	sp, sp, #0x100
  64:	d65f03c0 	ret
  68:	94000000 	bl	0 <__stack_chk_fail>

Disassembly of section .text.stbi_load_16_from_callbacks:

0000000000000000 <stbi_load_16_from_callbacks>:
   0:	d104c3ff 	sub	sp, sp, #0x130
   4:	a90e67fc 	stp	x28, x25, [sp,#224]
   8:	a90f5ff8 	stp	x24, x23, [sp,#240]
   c:	a91057f6 	stp	x22, x21, [sp,#256]
  10:	a9114ff4 	stp	x20, x19, [sp,#272]
  14:	a9127bfd 	stp	x29, x30, [sp,#288]
  18:	910483fd 	add	x29, sp, #0x120
  1c:	d53bd058 	mrs	x24, tpidr_el0
  20:	f9401708 	ldr	x8, [x24,#40]
  24:	910003f9 	mov	x25, sp
  28:	9100e337 	add	x23, x25, #0x38
  2c:	aa0203f6 	mov	x22, x2
  30:	f81b83a8 	stur	x8, [x29,#-72]
  34:	3dc00000 	ldr	q0, [x0]
  38:	90000008 	adrp	x8, 0 <stbi_load_16_from_callbacks>
  3c:	f9400809 	ldr	x9, [x0,#16]
  40:	fd400101 	ldr	d1, [x8]
  44:	3d8007e0 	str	q0, [sp,#16]
  48:	f9400be8 	ldr	x8, [sp,#16]
  4c:	a90207e9 	stp	x9, x1, [sp,#32]
  50:	52801002 	mov	w2, #0x80                  	// #128
  54:	aa0103e0 	mov	x0, x1
  58:	aa1703e1 	mov	x1, x23
  5c:	2a0503f3 	mov	w19, w5
  60:	aa0403f4 	mov	x20, x4
  64:	aa0303f5 	mov	x21, x3
  68:	fd001be1 	str	d1, [sp,#48]
  6c:	f90067f7 	str	x23, [sp,#200]
  70:	d63f0100 	blr	x8
  74:	34000080 	cbz	w0, 84 <stbi_load_16_from_callbacks+0x84>
  78:	8b20c328 	add	x8, x25, w0, sxtw
  7c:	9100e108 	add	x8, x8, #0x38
  80:	14000004 	b	90 <stbi_load_16_from_callbacks+0x90>
  84:	b90033ff 	str	wzr, [sp,#48]
  88:	9100e728 	add	x8, x25, #0x39
  8c:	3900e3ff 	strb	wzr, [sp,#56]
  90:	910003e0 	mov	x0, sp
  94:	aa1603e1 	mov	x1, x22
  98:	aa1503e2 	mov	x2, x21
  9c:	aa1403e3 	mov	x3, x20
  a0:	2a1303e4 	mov	w4, w19
  a4:	a90ba3f7 	stp	x23, x8, [sp,#184]
  a8:	f9006be8 	str	x8, [sp,#208]
  ac:	94000000 	bl	0 <stbi_load_16_from_callbacks>
  b0:	f9401708 	ldr	x8, [x24,#40]
  b4:	f85b83a9 	ldur	x9, [x29,#-72]
  b8:	eb09011f 	cmp	x8, x9
  bc:	54000101 	b.ne	dc <stbi_load_16_from_callbacks+0xdc>
  c0:	a9527bfd 	ldp	x29, x30, [sp,#288]
  c4:	a9514ff4 	ldp	x20, x19, [sp,#272]
  c8:	a95057f6 	ldp	x22, x21, [sp,#256]
  cc:	a94f5ff8 	ldp	x24, x23, [sp,#240]
  d0:	a94e67fc 	ldp	x28, x25, [sp,#224]
  d4:	9104c3ff 	add	sp, sp, #0x130
  d8:	d65f03c0 	ret
  dc:	94000000 	bl	0 <__stack_chk_fail>

Disassembly of section .text.stbi_load_from_memory:

0000000000000000 <stbi_load_from_memory>:
   0:	d10403ff 	sub	sp, sp, #0x100
   4:	f90073f3 	str	x19, [sp,#224]
   8:	a90f7bfd 	stp	x29, x30, [sp,#240]
   c:	9103c3fd 	add	x29, sp, #0xf0
  10:	d53bd053 	mrs	x19, tpidr_el0
  14:	f9401668 	ldr	x8, [x19,#40]
  18:	8b21c009 	add	x9, x0, w1, sxtw
  1c:	aa0203e1 	mov	x1, x2
  20:	aa0303e2 	mov	x2, x3
  24:	f81e83a8 	stur	x8, [x29,#-24]
  28:	a90ca7e0 	stp	x0, x9, [sp,#200]
  2c:	a90ba7e0 	stp	x0, x9, [sp,#184]
  30:	910003e0 	mov	x0, sp
  34:	aa0403e3 	mov	x3, x4
  38:	2a0503e4 	mov	w4, w5
  3c:	f9000bff 	str	xzr, [sp,#16]
  40:	b90033ff 	str	wzr, [sp,#48]
  44:	94000000 	bl	0 <stbi_load_from_memory>
  48:	f9401668 	ldr	x8, [x19,#40]
  4c:	f85e83a9 	ldur	x9, [x29,#-24]
  50:	eb09011f 	cmp	x8, x9
  54:	540000a1 	b.ne	68 <stbi_load_from_memory+0x68>
  58:	a94f7bfd 	ldp	x29, x30, [sp,#240]
  5c:	f94073f3 	ldr	x19, [sp,#224]
  60:	910403ff 	add	sp, sp, #0x100
  64:	d65f03c0 	ret
  68:	94000000 	bl	0 <__stack_chk_fail>

Disassembly of section .text.stbi_load_from_callbacks:

0000000000000000 <stbi_load_from_callbacks>:
   0:	d104c3ff 	sub	sp, sp, #0x130
   4:	a90e67fc 	stp	x28, x25, [sp,#224]
   8:	a90f5ff8 	stp	x24, x23, [sp,#240]
   c:	a91057f6 	stp	x22, x21, [sp,#256]
  10:	a9114ff4 	stp	x20, x19, [sp,#272]
  14:	a9127bfd 	stp	x29, x30, [sp,#288]
  18:	910483fd 	add	x29, sp, #0x120
  1c:	d53bd058 	mrs	x24, tpidr_el0
  20:	f9401708 	ldr	x8, [x24,#40]
  24:	910003f9 	mov	x25, sp
  28:	9100e337 	add	x23, x25, #0x38
  2c:	aa0203f6 	mov	x22, x2
  30:	f81b83a8 	stur	x8, [x29,#-72]
  34:	3dc00000 	ldr	q0, [x0]
  38:	90000008 	adrp	x8, 0 <stbi_load_from_callbacks>
  3c:	f9400809 	ldr	x9, [x0,#16]
  40:	fd400101 	ldr	d1, [x8]
  44:	3d8007e0 	str	q0, [sp,#16]
  48:	f9400be8 	ldr	x8, [sp,#16]
  4c:	a90207e9 	stp	x9, x1, [sp,#32]
  50:	52801002 	mov	w2, #0x80                  	// #128
  54:	aa0103e0 	mov	x0, x1
  58:	aa1703e1 	mov	x1, x23
  5c:	2a0503f3 	mov	w19, w5
  60:	aa0403f4 	mov	x20, x4
  64:	aa0303f5 	mov	x21, x3
  68:	fd001be1 	str	d1, [sp,#48]
  6c:	f90067f7 	str	x23, [sp,#200]
  70:	d63f0100 	blr	x8
  74:	34000080 	cbz	w0, 84 <stbi_load_from_callbacks+0x84>
  78:	8b20c328 	add	x8, x25, w0, sxtw
  7c:	9100e108 	add	x8, x8, #0x38
  80:	14000004 	b	90 <stbi_load_from_callbacks+0x90>
  84:	b90033ff 	str	wzr, [sp,#48]
  88:	9100e728 	add	x8, x25, #0x39
  8c:	3900e3ff 	strb	wzr, [sp,#56]
  90:	910003e0 	mov	x0, sp
  94:	aa1603e1 	mov	x1, x22
  98:	aa1503e2 	mov	x2, x21
  9c:	aa1403e3 	mov	x3, x20
  a0:	2a1303e4 	mov	w4, w19
  a4:	a90ba3f7 	stp	x23, x8, [sp,#184]
  a8:	f9006be8 	str	x8, [sp,#208]
  ac:	94000000 	bl	0 <stbi_load_from_callbacks>
  b0:	f9401708 	ldr	x8, [x24,#40]
  b4:	f85b83a9 	ldur	x9, [x29,#-72]
  b8:	eb09011f 	cmp	x8, x9
  bc:	54000101 	b.ne	dc <stbi_load_from_callbacks+0xdc>
  c0:	a9527bfd 	ldp	x29, x30, [sp,#288]
  c4:	a9514ff4 	ldp	x20, x19, [sp,#272]
  c8:	a95057f6 	ldp	x22, x21, [sp,#256]
  cc:	a94f5ff8 	ldp	x24, x23, [sp,#240]
  d0:	a94e67fc 	ldp	x28, x25, [sp,#224]
  d4:	9104c3ff 	add	sp, sp, #0x130
  d8:	d65f03c0 	ret
  dc:	94000000 	bl	0 <__stack_chk_fail>

Disassembly of section .text.stbi_load_gif_from_memory:

0000000000000000 <stbi_load_gif_from_memory>:
   0:	a9ba6ffc 	stp	x28, x27, [sp,#-96]!
   4:	a90167fa 	stp	x26, x25, [sp,#16]
   8:	a9025ff8 	stp	x24, x23, [sp,#32]
   c:	a90357f6 	stp	x22, x21, [sp,#48]
  10:	a9044ff4 	stp	x20, x19, [sp,#64]
  14:	a9057bfd 	stp	x29, x30, [sp,#80]
  18:	910143fd 	add	x29, sp, #0x50
  1c:	d14023ff 	sub	sp, sp, #0x8, lsl #12
  20:	d12643ff 	sub	sp, sp, #0x990
  24:	a9029be4 	stp	x4, x6, [sp,#40]
  28:	f90013e3 	str	x3, [sp,#32]
  2c:	d53bd05b 	mrs	x27, tpidr_el0
  30:	f9401768 	ldr	x8, [x27,#40]
  34:	8b21c009 	add	x9, x0, w1, sxtw
  38:	2a0703f3 	mov	w19, w7
  3c:	aa0503fc 	mov	x28, x5
  40:	f81a03a8 	stur	x8, [x29,#-96]
  44:	a91027e0 	stp	x0, x9, [sp,#256]
  48:	a90f27e0 	stp	x0, x9, [sp,#240]
  4c:	9100e3e0 	add	x0, sp, #0x38
  50:	aa0203f9 	mov	x25, x2
  54:	f90027ff 	str	xzr, [sp,#72]
  58:	b9006bff 	str	wzr, [sp,#104]
  5c:	94000000 	bl	0 <stbi_load_gif_from_memory>
  60:	340009e0 	cbz	w0, 19c <stbi_load_gif_from_memory+0x19c>
  64:	910443e0 	add	x0, sp, #0x110
  68:	52910e02 	mov	w2, #0x8870                	// #34928
  6c:	2a1f03e1 	mov	w1, wzr
  70:	b9001ff3 	str	w19, [sp,#28]
  74:	94000000 	bl	0 <memset>
  78:	b4000059 	cbz	x25, 80 <stbi_load_gif_from_memory+0x80>
  7c:	f900033f 	str	xzr, [x25]
  80:	f9401be2 	ldr	x2, [sp,#48]
  84:	9100e3e0 	add	x0, sp, #0x38
  88:	910443e1 	add	x1, sp, #0x110
  8c:	aa1f03e3 	mov	x3, xzr
  90:	9100e3f3 	add	x19, sp, #0x38
  94:	94000000 	bl	0 <stbi_load_gif_from_memory>
  98:	aa1f03f8 	mov	x24, xzr
  9c:	eb13001f 	cmp	x0, x19
  a0:	2a1f03f4 	mov	w20, wzr
  a4:	54001040 	b.eq	2ac <stbi_load_gif_from_memory+0x2ac>
  a8:	aa0003fa 	mov	x26, x0
  ac:	b4001000 	cbz	x0, 2ac <stbi_load_gif_from_memory+0x2ac>
  b0:	b4000b39 	cbz	x25, 214 <stbi_load_gif_from_memory+0x214>
  b4:	52910d08 	mov	w8, #0x8868                	// #34920
  b8:	910443e9 	add	x9, sp, #0x110
  bc:	a900effc 	stp	x28, x27, [sp,#8]
  c0:	aa1f03f6 	mov	x22, xzr
  c4:	aa1f03fb 	mov	x27, xzr
  c8:	aa1f03f8 	mov	x24, xzr
  cc:	5280009c 	mov	w28, #0x4                   	// #4
  d0:	8b080137 	add	x23, x9, x8
  d4:	b94113e8 	ldr	w8, [sp,#272]
  d8:	a9422be9 	ldp	x9, x10, [sp,#32]
  dc:	910006d4 	add	x20, x22, #0x1
  e0:	b9000128 	str	w8, [x9]
  e4:	b94117e9 	ldr	w9, [sp,#276]
  e8:	1b087d35 	mul	w21, w9, w8
  ec:	531e76b3 	lsl	w19, w21, #2
  f0:	1b147e68 	mul	w8, w19, w20
  f4:	93407d01 	sxtw	x1, w8
  f8:	b9000149 	str	w9, [x10]
  fc:	b4000138 	cbz	x24, 120 <stbi_load_gif_from_memory+0x120>
 100:	aa1803e0 	mov	x0, x24
 104:	94000000 	bl	0 <realloc>
 108:	f9400328 	ldr	x8, [x25]
 10c:	aa0003f8 	mov	x24, x0
 110:	aa1c03e1 	mov	x1, x28
 114:	aa0803e0 	mov	x0, x8
 118:	94000000 	bl	0 <realloc>
 11c:	14000006 	b	134 <stbi_load_gif_from_memory+0x134>
 120:	aa0103e0 	mov	x0, x1
 124:	94000000 	bl	0 <malloc>
 128:	aa0003f8 	mov	x24, x0
 12c:	aa1c03e0 	mov	x0, x28
 130:	94000000 	bl	0 <malloc>
 134:	1b167e68 	mul	w8, w19, w22
 138:	f9000320 	str	x0, [x25]
 13c:	8b28c300 	add	x0, x24, w8, sxtw
 140:	93407e62 	sxtw	x2, w19
 144:	aa1a03e1 	mov	x1, x26
 148:	94000000 	bl	0 <memcpy>
 14c:	b4000076 	cbz	x22, 158 <stbi_load_gif_from_memory+0x158>
 150:	531d72a8 	lsl	w8, w21, #3
 154:	cb28c31b 	sub	x27, x24, w8, sxtw
 158:	b94002e8 	ldr	w8, [x23]
 15c:	f9400329 	ldr	x9, [x25]
 160:	f9401be2 	ldr	x2, [sp,#48]
 164:	9100e3e0 	add	x0, sp, #0x38
 168:	910443e1 	add	x1, sp, #0x110
 16c:	aa1b03e3 	mov	x3, x27
 170:	b8367928 	str	w8, [x9,x22,lsl #2]
 174:	94000000 	bl	0 <stbi_load_gif_from_memory>
 178:	9100e3e8 	add	x8, sp, #0x38
 17c:	eb08001f 	cmp	x0, x8
 180:	540000a0 	b.eq	194 <stbi_load_gif_from_memory+0x194>
 184:	aa0003fa 	mov	x26, x0
 188:	9100139c 	add	x28, x28, #0x4
 18c:	aa1403f6 	mov	x22, x20
 190:	b5fffa20 	cbnz	x0, d4 <stbi_load_gif_from_memory+0xd4>
 194:	a940effc 	ldp	x28, x27, [sp,#8]
 198:	14000045 	b	2ac <stbi_load_gif_from_memory+0x2ac>
 19c:	90000009 	adrp	x9, 0 <stbi_load_gif_from_memory>
 1a0:	aa1f03f8 	mov	x24, xzr
 1a4:	90000008 	adrp	x8, 0 <stbi_load_gif_from_memory>
 1a8:	91000129 	add	x9, x9, #0x0
 1ac:	f9000109 	str	x9, [x8]
 1b0:	90000008 	adrp	x8, 0 <stbi_load_gif_from_memory>
 1b4:	b9400108 	ldr	w8, [x8]
 1b8:	34000a28 	cbz	w8, 2fc <stbi_load_gif_from_memory+0x2fc>
 1bc:	b9400397 	ldr	w23, [x28]
 1c0:	710006ff 	cmp	w23, #0x1
 1c4:	540009cb 	b.lt	2fc <stbi_load_gif_from_memory+0x2fc>
 1c8:	f94013e8 	ldr	x8, [sp,#32]
 1cc:	aa1803f6 	mov	x22, x24
 1d0:	b9400115 	ldr	w21, [x8]
 1d4:	f94017e8 	ldr	x8, [sp,#40]
 1d8:	b9400114 	ldr	w20, [x8]
 1dc:	f9401be8 	ldr	x8, [sp,#48]
 1e0:	b9400113 	ldr	w19, [x8]
 1e4:	1b157e88 	mul	w8, w20, w21
 1e8:	1b137d08 	mul	w8, w8, w19
 1ec:	93407d19 	sxtw	x25, w8
 1f0:	aa1603e0 	mov	x0, x22
 1f4:	2a1503e1 	mov	w1, w21
 1f8:	2a1403e2 	mov	w2, w20
 1fc:	2a1303e3 	mov	w3, w19
 200:	94000000 	bl	0 <stbi_load_gif_from_memory>
 204:	710006f7 	subs	w23, w23, #0x1
 208:	8b1902d6 	add	x22, x22, x25
 20c:	54ffff21 	b.ne	1f0 <stbi_load_gif_from_memory+0x1f0>
 210:	1400003b 	b	2fc <stbi_load_gif_from_memory+0x2fc>
 214:	aa1f03f8 	mov	x24, xzr
 218:	2a1f03f7 	mov	w23, wzr
 21c:	9100e3f6 	add	x22, sp, #0x38
 220:	b94113e8 	ldr	w8, [sp,#272]
 224:	a9422be9 	ldp	x9, x10, [sp,#32]
 228:	110006f4 	add	w20, w23, #0x1
 22c:	b9000128 	str	w8, [x9]
 230:	b94117e9 	ldr	w9, [sp,#276]
 234:	1b087d33 	mul	w19, w9, w8
 238:	531e7675 	lsl	w21, w19, #2
 23c:	1b147ea8 	mul	w8, w21, w20
 240:	93407d01 	sxtw	x1, w8
 244:	b9000149 	str	w9, [x10]
 248:	b4000098 	cbz	x24, 258 <stbi_load_gif_from_memory+0x258>
 24c:	aa1803e0 	mov	x0, x24
 250:	94000000 	bl	0 <realloc>
 254:	14000003 	b	260 <stbi_load_gif_from_memory+0x260>
 258:	aa0103e0 	mov	x0, x1
 25c:	94000000 	bl	0 <malloc>
 260:	1b177ea8 	mul	w8, w21, w23
 264:	aa0003f8 	mov	x24, x0
 268:	8b28c000 	add	x0, x0, w8, sxtw
 26c:	93407ea2 	sxtw	x2, w21
 270:	aa1a03e1 	mov	x1, x26
 274:	94000000 	bl	0 <memcpy>
 278:	34000077 	cbz	w23, 284 <stbi_load_gif_from_memory+0x284>
 27c:	531d7268 	lsl	w8, w19, #3
 280:	cb28c319 	sub	x25, x24, w8, sxtw
 284:	f9401be2 	ldr	x2, [sp,#48]
 288:	9100e3e0 	add	x0, sp, #0x38
 28c:	910443e1 	add	x1, sp, #0x110
 290:	aa1903e3 	mov	x3, x25
 294:	94000000 	bl	0 <stbi_load_gif_from_memory>
 298:	eb16001f 	cmp	x0, x22
 29c:	54000080 	b.eq	2ac <stbi_load_gif_from_memory+0x2ac>
 2a0:	aa0003fa 	mov	x26, x0
 2a4:	2a1403f7 	mov	w23, w20
 2a8:	b5fffbc0 	cbnz	x0, 220 <stbi_load_gif_from_memory+0x220>
 2ac:	f9408fe0 	ldr	x0, [sp,#280]
 2b0:	94000000 	bl	0 <free>
 2b4:	f94097e0 	ldr	x0, [sp,#296]
 2b8:	94000000 	bl	0 <free>
 2bc:	f94093e0 	ldr	x0, [sp,#288]
 2c0:	94000000 	bl	0 <free>
 2c4:	b9401fe2 	ldr	w2, [sp,#28]
 2c8:	721d785f 	tst	w2, #0xfffffffb
 2cc:	54000100 	b.eq	2ec <stbi_load_gif_from_memory+0x2ec>
 2d0:	b94113e8 	ldr	w8, [sp,#272]
 2d4:	b94117e4 	ldr	w4, [sp,#276]
 2d8:	52800081 	mov	w1, #0x4                   	// #4
 2dc:	aa1803e0 	mov	x0, x24
 2e0:	1b147d03 	mul	w3, w8, w20
 2e4:	94000000 	bl	0 <stbi_load_gif_from_memory>
 2e8:	aa0003f8 	mov	x24, x0
 2ec:	b9000394 	str	w20, [x28]
 2f0:	90000008 	adrp	x8, 0 <stbi_load_gif_from_memory>
 2f4:	b9400108 	ldr	w8, [x8]
 2f8:	35fff628 	cbnz	w8, 1bc <stbi_load_gif_from_memory+0x1bc>
 2fc:	f9401768 	ldr	x8, [x27,#40]
 300:	f85a03a9 	ldur	x9, [x29,#-96]
 304:	eb09011f 	cmp	x8, x9
 308:	54000161 	b.ne	334 <stbi_load_gif_from_memory+0x334>
 30c:	aa1803e0 	mov	x0, x24
 310:	914023ff 	add	sp, sp, #0x8, lsl #12
 314:	912643ff 	add	sp, sp, #0x990
 318:	a9457bfd 	ldp	x29, x30, [sp,#80]
 31c:	a9444ff4 	ldp	x20, x19, [sp,#64]
 320:	a94357f6 	ldp	x22, x21, [sp,#48]
 324:	a9425ff8 	ldp	x24, x23, [sp,#32]
 328:	a94167fa 	ldp	x26, x25, [sp,#16]
 32c:	a8c66ffc 	ldp	x28, x27, [sp],#96
 330:	d65f03c0 	ret
 334:	94000000 	bl	0 <__stack_chk_fail>

Disassembly of section .text.stbi_loadf_from_memory:

0000000000000000 <stbi_loadf_from_memory>:
   0:	d10403ff 	sub	sp, sp, #0x100
   4:	f90073f3 	str	x19, [sp,#224]
   8:	a90f7bfd 	stp	x29, x30, [sp,#240]
   c:	9103c3fd 	add	x29, sp, #0xf0
  10:	d53bd053 	mrs	x19, tpidr_el0
  14:	f9401668 	ldr	x8, [x19,#40]
  18:	8b21c009 	add	x9, x0, w1, sxtw
  1c:	aa0203e1 	mov	x1, x2
  20:	aa0303e2 	mov	x2, x3
  24:	f81e83a8 	stur	x8, [x29,#-24]
  28:	a90ca7e0 	stp	x0, x9, [sp,#200]
  2c:	a90ba7e0 	stp	x0, x9, [sp,#184]
  30:	910003e0 	mov	x0, sp
  34:	aa0403e3 	mov	x3, x4
  38:	2a0503e4 	mov	w4, w5
  3c:	f9000bff 	str	xzr, [sp,#16]
  40:	b90033ff 	str	wzr, [sp,#48]
  44:	94000000 	bl	0 <stbi_loadf_from_memory>
  48:	f9401668 	ldr	x8, [x19,#40]
  4c:	f85e83a9 	ldur	x9, [x29,#-24]
  50:	eb09011f 	cmp	x8, x9
  54:	540000a1 	b.ne	68 <stbi_loadf_from_memory+0x68>
  58:	a94f7bfd 	ldp	x29, x30, [sp,#240]
  5c:	f94073f3 	ldr	x19, [sp,#224]
  60:	910403ff 	add	sp, sp, #0x100
  64:	d65f03c0 	ret
  68:	94000000 	bl	0 <__stack_chk_fail>

Disassembly of section .text._ZL16stbi__loadf_mainP13stbi__contextPiS1_S1_i:

0000000000000000 <_ZL16stbi__loadf_mainP13stbi__contextPiS1_S1_i>:
   0:	d102c3ff 	sub	sp, sp, #0xb0
   4:	6d0423e9 	stp	d9, d8, [sp,#64]
   8:	a9056ffc 	stp	x28, x27, [sp,#80]
   c:	a90667fa 	stp	x26, x25, [sp,#96]
  10:	a9075ff8 	stp	x24, x23, [sp,#112]
  14:	a90857f6 	stp	x22, x21, [sp,#128]
  18:	a9094ff4 	stp	x20, x19, [sp,#144]
  1c:	a90a7bfd 	stp	x29, x30, [sp,#160]
  20:	910283fd 	add	x29, sp, #0xa0
  24:	2a0403f5 	mov	w21, w4
  28:	aa0303f7 	mov	x23, x3
  2c:	aa0203f6 	mov	x22, x2
  30:	aa0103f8 	mov	x24, x1
  34:	aa0003f3 	mov	x19, x0
  38:	94000000 	bl	0 <_ZL16stbi__loadf_mainP13stbi__contextPiS1_S1_i>
  3c:	34000280 	cbz	w0, 8c <_ZL16stbi__loadf_mainP13stbi__contextPiS1_S1_i+0x8c>
  40:	aa1303e0 	mov	x0, x19
  44:	aa1803e1 	mov	x1, x24
  48:	aa1603e2 	mov	x2, x22
  4c:	aa1703e3 	mov	x3, x23
  50:	2a1503e4 	mov	w4, w21
  54:	94000000 	bl	0 <_ZL16stbi__loadf_mainP13stbi__contextPiS1_S1_i>
  58:	aa0003f4 	mov	x20, x0
  5c:	b4000ea0 	cbz	x0, 230 <_ZL16stbi__loadf_mainP13stbi__contextPiS1_S1_i+0x230>
  60:	90000008 	adrp	x8, 0 <_ZL16stbi__loadf_mainP13stbi__contextPiS1_S1_i>
  64:	b9400108 	ldr	w8, [x8]
  68:	34000e48 	cbz	w8, 230 <_ZL16stbi__loadf_mainP13stbi__contextPiS1_S1_i+0x230>
  6c:	35000055 	cbnz	w21, 74 <_ZL16stbi__loadf_mainP13stbi__contextPiS1_S1_i+0x74>
  70:	b94002f5 	ldr	w21, [x23]
  74:	b9400301 	ldr	w1, [x24]
  78:	b94002c2 	ldr	w2, [x22]
  7c:	531e76a3 	lsl	w3, w21, #2
  80:	aa1403e0 	mov	x0, x20
  84:	94000000 	bl	0 <_ZL16stbi__loadf_mainP13stbi__contextPiS1_S1_i>
  88:	1400006a 	b	230 <_ZL16stbi__loadf_mainP13stbi__contextPiS1_S1_i+0x230>
  8c:	aa1303e0 	mov	x0, x19
  90:	aa1803e1 	mov	x1, x24
  94:	aa1603e2 	mov	x2, x22
  98:	aa1703e3 	mov	x3, x23
  9c:	2a1503e4 	mov	w4, w21
  a0:	94000000 	bl	0 <_ZL16stbi__loadf_mainP13stbi__contextPiS1_S1_i>
  a4:	b4000a80 	cbz	x0, 1f4 <_ZL16stbi__loadf_mainP13stbi__contextPiS1_S1_i+0x1f4>
  a8:	b9400308 	ldr	w8, [x24]
  ac:	b94002c9 	ldr	w9, [x22]
  b0:	aa0003f3 	mov	x19, x0
  b4:	34000ab5 	cbz	w21, 208 <_ZL16stbi__loadf_mainP13stbi__contextPiS1_S1_i+0x208>
  b8:	2a08012a 	orr	w10, w9, w8
  bc:	37f80aca 	tbnz	w10, #31, 214 <_ZL16stbi__loadf_mainP13stbi__contextPiS1_S1_i+0x214>
  c0:	340000a9 	cbz	w9, d4 <_ZL16stbi__loadf_mainP13stbi__contextPiS1_S1_i+0xd4>
  c4:	12b0000a 	mov	w10, #0x7fffffff            	// #2147483647
  c8:	1ac90d4a 	sdiv	w10, w10, w9
  cc:	6b08015f 	cmp	w10, w8
  d0:	54000a2b 	b.lt	214 <_ZL16stbi__loadf_mainP13stbi__contextPiS1_S1_i+0x214>
  d4:	1b087d36 	mul	w22, w9, w8
  d8:	2a1602a8 	orr	w8, w21, w22
  dc:	37f809c8 	tbnz	w8, #31, 214 <_ZL16stbi__loadf_mainP13stbi__contextPiS1_S1_i+0x214>
  e0:	340000b5 	cbz	w21, f4 <_ZL16stbi__loadf_mainP13stbi__contextPiS1_S1_i+0xf4>
  e4:	12b00008 	mov	w8, #0x7fffffff            	// #2147483647
  e8:	1ad50d08 	sdiv	w8, w8, w21
  ec:	6b16011f 	cmp	w8, w22
  f0:	5400092b 	b.lt	214 <_ZL16stbi__loadf_mainP13stbi__contextPiS1_S1_i+0x214>
  f4:	1b167ea8 	mul	w8, w21, w22
  f8:	531d7d08 	lsr	w8, w8, #29
  fc:	350008c8 	cbnz	w8, 214 <_ZL16stbi__loadf_mainP13stbi__contextPiS1_S1_i+0x214>
 100:	1b157ec8 	mul	w8, w22, w21
 104:	531e7508 	lsl	w8, w8, #2
 108:	93407d00 	sxtw	x0, w8
 10c:	94000000 	bl	0 <malloc>
 110:	b4000820 	cbz	x0, 214 <_ZL16stbi__loadf_mainP13stbi__contextPiS1_S1_i+0x214>
 114:	aa0003f4 	mov	x20, x0
 118:	710006df 	cmp	w22, #0x1
 11c:	54000e6b 	b.lt	2e8 <_ZL16stbi__loadf_mainP13stbi__contextPiS1_S1_i+0x2e8>
 120:	120002a8 	and	w8, w21, #0x1
 124:	b9000fe8 	str	w8, [sp,#12]
 128:	52000108 	eor	w8, w8, #0x1
 12c:	4b0802a8 	sub	w8, w21, w8
 130:	7100051f 	cmp	w8, #0x1
 134:	a901cff4 	stp	x20, x19, [sp,#24]
 138:	f9000be8 	str	x8, [sp,#16]
 13c:	5400046b 	b.lt	1c8 <_ZL16stbi__loadf_mainP13stbi__contextPiS1_S1_i+0x1c8>
 140:	90000008 	adrp	x8, 0 <_ZL16stbi__loadf_mainP13stbi__contextPiS1_S1_i>
 144:	91000108 	add	x8, x8, #0x0
 148:	93407ea9 	sxtw	x9, w21
 14c:	2d402508 	ldp	s8, s9, [x8]
 150:	2a1603e8 	mov	w8, w22
 154:	a90327e8 	stp	x8, x9, [sp,#48]
 158:	a9416fe8 	ldp	x8, x27, [sp,#16]
 15c:	f94013fa 	ldr	x26, [sp,#32]
 160:	52901037 	mov	w23, #0x8081                	// #32897
 164:	aa1f03f9 	mov	x25, xzr
 168:	2a0803e8 	mov	w8, w8
 16c:	937e7eb8 	sbfiz	x24, x21, #2, #32
 170:	72a77017 	movk	w23, #0x3b80, lsl #16
 174:	f90017e8 	str	x8, [sp,#40]
 178:	f94017fc 	ldr	x28, [sp,#40]
 17c:	aa1a03f3 	mov	x19, x26
 180:	aa1b03f4 	mov	x20, x27
 184:	38401668 	ldrb	w8, [x19],#1
 188:	1e2702e1 	fmov	s1, w23
 18c:	1e230100 	ucvtf	s0, w8
 190:	1e210800 	fmul	s0, s0, s1
 194:	4ea81d01 	mov	v1.16b, v8.16b
 198:	94000000 	bl	0 <powf>
 19c:	1e290800 	fmul	s0, s0, s9
 1a0:	f100079c 	subs	x28, x28, #0x1
 1a4:	bc004680 	str	s0, [x20],#4
 1a8:	54fffee1 	b.ne	184 <_ZL16stbi__loadf_mainP13stbi__contextPiS1_S1_i+0x184>
 1ac:	f9401be8 	ldr	x8, [sp,#48]
 1b0:	91000739 	add	x25, x25, #0x1
 1b4:	8b18037b 	add	x27, x27, x24
 1b8:	eb08033f 	cmp	x25, x8
 1bc:	f9401fe8 	ldr	x8, [sp,#56]
 1c0:	8b08035a 	add	x26, x26, x8
 1c4:	54fffda1 	b.ne	178 <_ZL16stbi__loadf_mainP13stbi__contextPiS1_S1_i+0x178>
 1c8:	a941cff4 	ldp	x20, x19, [sp,#24]
 1cc:	b9400fe8 	ldr	w8, [sp,#12]
 1d0:	350008c8 	cbnz	w8, 2e8 <_ZL16stbi__loadf_mainP13stbi__contextPiS1_S1_i+0x2e8>
 1d4:	f9400be9 	ldr	x9, [sp,#16]
 1d8:	93407ea8 	sxtw	x8, w21
 1dc:	71000adf 	cmp	w22, #0x2
 1e0:	2a1603ea 	mov	w10, w22
 1e4:	93407d29 	sxtw	x9, w9
 1e8:	54000382 	b.cs	258 <_ZL16stbi__loadf_mainP13stbi__contextPiS1_S1_i+0x258>
 1ec:	aa1f03eb 	mov	x11, xzr
 1f0:	14000032 	b	2b8 <_ZL16stbi__loadf_mainP13stbi__contextPiS1_S1_i+0x2b8>
 1f4:	90000009 	adrp	x9, 0 <_ZL16stbi__loadf_mainP13stbi__contextPiS1_S1_i>
 1f8:	aa1f03f4 	mov	x20, xzr
 1fc:	90000008 	adrp	x8, 0 <_ZL16stbi__loadf_mainP13stbi__contextPiS1_S1_i>
 200:	91000129 	add	x9, x9, #0x0
 204:	1400000a 	b	22c <_ZL16stbi__loadf_mainP13stbi__contextPiS1_S1_i+0x22c>
 208:	b94002f5 	ldr	w21, [x23]
 20c:	2a08012a 	orr	w10, w9, w8
 210:	36fff58a 	tbz	w10, #31, c0 <_ZL16stbi__loadf_mainP13stbi__contextPiS1_S1_i+0xc0>
 214:	aa1303e0 	mov	x0, x19
 218:	94000000 	bl	0 <free>
 21c:	90000009 	adrp	x9, 0 <_ZL16stbi__loadf_mainP13stbi__contextPiS1_S1_i>
 220:	aa1f03f4 	mov	x20, xzr
 224:	90000008 	adrp	x8, 0 <_ZL16stbi__loadf_mainP13stbi__contextPiS1_S1_i>
 228:	91000129 	add	x9, x9, #0x0
 22c:	f9000109 	str	x9, [x8]
 230:	aa1403e0 	mov	x0, x20
 234:	a94a7bfd 	ldp	x29, x30, [sp,#160]
 238:	a9494ff4 	ldp	x20, x19, [sp,#144]
 23c:	a94857f6 	ldp	x22, x21, [sp,#128]
 240:	a9475ff8 	ldp	x24, x23, [sp,#112]
 244:	a94667fa 	ldp	x26, x25, [sp,#96]
 248:	a9456ffc 	ldp	x28, x27, [sp,#80]
 24c:	6d4423e9 	ldp	d9, d8, [sp,#64]
 250:	9102c3ff 	add	sp, sp, #0xb0
 254:	d65f03c0 	ret
 258:	927f794b 	and	x11, x10, #0xfffffffe
 25c:	52901031 	mov	w17, #0x8081                	// #32897
 260:	8b080a8c 	add	x12, x20, x8, lsl #2
 264:	d37ef52d 	lsl	x13, x9, #2
 268:	d37df10e 	lsl	x14, x8, #3
 26c:	8b09026f 	add	x15, x19, x9
 270:	d37ff910 	lsl	x16, x8, #1
 274:	72a77011 	movk	w17, #0x3b80, lsl #16
 278:	aa0b03e0 	mov	x0, x11
 27c:	3d4001e0 	ldr	b0, [x15]
 280:	3c6869e1 	ldr	b1, [x15,x8]
 284:	1e270222 	fmov	s2, w17
 288:	f1000800 	subs	x0, x0, #0x2
 28c:	7e21d800 	ucvtf	s0, s0
 290:	7e21d821 	ucvtf	s1, s1
 294:	1e220800 	fmul	s0, s0, s2
 298:	1e220821 	fmul	s1, s1, s2
 29c:	bc2d6a80 	str	s0, [x20,x13]
 2a0:	bc2d6981 	str	s1, [x12,x13]
 2a4:	8b0e01ad 	add	x13, x13, x14
 2a8:	8b1001ef 	add	x15, x15, x16
 2ac:	54fffe81 	b.ne	27c <_ZL16stbi__loadf_mainP13stbi__contextPiS1_S1_i+0x27c>
 2b0:	eb0a017f 	cmp	x11, x10
 2b4:	540001a0 	b.eq	2e8 <_ZL16stbi__loadf_mainP13stbi__contextPiS1_S1_i+0x2e8>
 2b8:	9b082569 	madd	x9, x11, x8, x9
 2bc:	cb0b014a 	sub	x10, x10, x11
 2c0:	5290102b 	mov	w11, #0x8081                	// #32897
 2c4:	72a7700b 	movk	w11, #0x3b80, lsl #16
 2c8:	3c696a60 	ldr	b0, [x19,x9]
 2cc:	1e270161 	fmov	s1, w11
 2d0:	f100054a 	subs	x10, x10, #0x1
 2d4:	7e21d800 	ucvtf	s0, s0
 2d8:	1e210800 	fmul	s0, s0, s1
 2dc:	bc297a80 	str	s0, [x20,x9,lsl #2]
 2e0:	8b080129 	add	x9, x9, x8
 2e4:	54ffff21 	b.ne	2c8 <_ZL16stbi__loadf_mainP13stbi__contextPiS1_S1_i+0x2c8>
 2e8:	aa1303e0 	mov	x0, x19
 2ec:	94000000 	bl	0 <free>
 2f0:	17ffffd0 	b	230 <_ZL16stbi__loadf_mainP13stbi__contextPiS1_S1_i+0x230>

Disassembly of section .text.stbi_loadf_from_callbacks:

0000000000000000 <stbi_loadf_from_callbacks>:
   0:	d104c3ff 	sub	sp, sp, #0x130
   4:	a90e67fc 	stp	x28, x25, [sp,#224]
   8:	a90f5ff8 	stp	x24, x23, [sp,#240]
   c:	a91057f6 	stp	x22, x21, [sp,#256]
  10:	a9114ff4 	stp	x20, x19, [sp,#272]
  14:	a9127bfd 	stp	x29, x30, [sp,#288]
  18:	910483fd 	add	x29, sp, #0x120
  1c:	d53bd058 	mrs	x24, tpidr_el0
  20:	f9401708 	ldr	x8, [x24,#40]
  24:	910003f9 	mov	x25, sp
  28:	9100e337 	add	x23, x25, #0x38
  2c:	aa0203f6 	mov	x22, x2
  30:	f81b83a8 	stur	x8, [x29,#-72]
  34:	3dc00000 	ldr	q0, [x0]
  38:	90000008 	adrp	x8, 0 <stbi_loadf_from_callbacks>
  3c:	f9400809 	ldr	x9, [x0,#16]
  40:	fd400101 	ldr	d1, [x8]
  44:	3d8007e0 	str	q0, [sp,#16]
  48:	f9400be8 	ldr	x8, [sp,#16]
  4c:	a90207e9 	stp	x9, x1, [sp,#32]
  50:	52801002 	mov	w2, #0x80                  	// #128
  54:	aa0103e0 	mov	x0, x1
  58:	aa1703e1 	mov	x1, x23
  5c:	2a0503f3 	mov	w19, w5
  60:	aa0403f4 	mov	x20, x4
  64:	aa0303f5 	mov	x21, x3
  68:	fd001be1 	str	d1, [sp,#48]
  6c:	f90067f7 	str	x23, [sp,#200]
  70:	d63f0100 	blr	x8
  74:	34000080 	cbz	w0, 84 <stbi_loadf_from_callbacks+0x84>
  78:	8b20c328 	add	x8, x25, w0, sxtw
  7c:	9100e108 	add	x8, x8, #0x38
  80:	14000004 	b	90 <stbi_loadf_from_callbacks+0x90>
  84:	b90033ff 	str	wzr, [sp,#48]
  88:	9100e728 	add	x8, x25, #0x39
  8c:	3900e3ff 	strb	wzr, [sp,#56]
  90:	910003e0 	mov	x0, sp
  94:	aa1603e1 	mov	x1, x22
  98:	aa1503e2 	mov	x2, x21
  9c:	aa1403e3 	mov	x3, x20
  a0:	2a1303e4 	mov	w4, w19
  a4:	a90ba3f7 	stp	x23, x8, [sp,#184]
  a8:	f9006be8 	str	x8, [sp,#208]
  ac:	94000000 	bl	0 <stbi_loadf_from_callbacks>
  b0:	f9401708 	ldr	x8, [x24,#40]
  b4:	f85b83a9 	ldur	x9, [x29,#-72]
  b8:	eb09011f 	cmp	x8, x9
  bc:	54000101 	b.ne	dc <stbi_loadf_from_callbacks+0xdc>
  c0:	a9527bfd 	ldp	x29, x30, [sp,#288]
  c4:	a9514ff4 	ldp	x20, x19, [sp,#272]
  c8:	a95057f6 	ldp	x22, x21, [sp,#256]
  cc:	a94f5ff8 	ldp	x24, x23, [sp,#240]
  d0:	a94e67fc 	ldp	x28, x25, [sp,#224]
  d4:	9104c3ff 	add	sp, sp, #0x130
  d8:	d65f03c0 	ret
  dc:	94000000 	bl	0 <__stack_chk_fail>

Disassembly of section .text.stbi_loadf:

0000000000000000 <stbi_loadf>:
   0:	d10503ff 	sub	sp, sp, #0x140
   4:	f90073fc 	str	x28, [sp,#224]
   8:	a90f67fa 	stp	x26, x25, [sp,#240]
   c:	a9105ff8 	stp	x24, x23, [sp,#256]
  10:	a91157f6 	stp	x22, x21, [sp,#272]
  14:	a9124ff4 	stp	x20, x19, [sp,#288]
  18:	a9137bfd 	stp	x29, x30, [sp,#304]
  1c:	9104c3fd 	add	x29, sp, #0x130
  20:	d53bd059 	mrs	x25, tpidr_el0
  24:	f9401728 	ldr	x8, [x25,#40]
  28:	aa0103f6 	mov	x22, x1
  2c:	90000001 	adrp	x1, 0 <stbi_loadf>
  30:	91000021 	add	x1, x1, #0x0
  34:	2a0403f3 	mov	w19, w4
  38:	aa0303f4 	mov	x20, x3
  3c:	aa0203f5 	mov	x21, x2
  40:	f81a83a8 	stur	x8, [x29,#-88]
  44:	94000000 	bl	0 <fopen>
  48:	b40002c0 	cbz	x0, a0 <stbi_loadf+0xa0>
  4c:	90000008 	adrp	x8, 0 <stbi_loadf>
  50:	91000108 	add	x8, x8, #0x0
  54:	3dc00100 	ldr	q0, [x8]
  58:	f9400908 	ldr	x8, [x8,#16]
  5c:	90000009 	adrp	x9, 0 <stbi_loadf>
  60:	fd400121 	ldr	d1, [x9]
  64:	3d8007e0 	str	q0, [sp,#16]
  68:	a90203e8 	stp	x8, x0, [sp,#32]
  6c:	f9400be8 	ldr	x8, [sp,#16]
  70:	910003fa 	mov	x26, sp
  74:	9100e358 	add	x24, x26, #0x38
  78:	52801002 	mov	w2, #0x80                  	// #128
  7c:	aa1803e1 	mov	x1, x24
  80:	aa0003f7 	mov	x23, x0
  84:	fd001be1 	str	d1, [sp,#48]
  88:	f90067f8 	str	x24, [sp,#200]
  8c:	d63f0100 	blr	x8
  90:	340001c0 	cbz	w0, c8 <stbi_loadf+0xc8>
  94:	8b20c348 	add	x8, x26, w0, sxtw
  98:	9100e108 	add	x8, x8, #0x38
  9c:	1400000e 	b	d4 <stbi_loadf+0xd4>
  a0:	90000009 	adrp	x9, 0 <stbi_loadf>
  a4:	90000008 	adrp	x8, 0 <stbi_loadf>
  a8:	91000129 	add	x9, x9, #0x0
  ac:	aa1f03f3 	mov	x19, xzr
  b0:	f9000109 	str	x9, [x8]
  b4:	f9401728 	ldr	x8, [x25,#40]
  b8:	f85a83a9 	ldur	x9, [x29,#-88]
  bc:	eb09011f 	cmp	x8, x9
  c0:	54000280 	b.eq	110 <stbi_loadf+0x110>
  c4:	1400001c 	b	134 <stbi_loadf+0x134>
  c8:	b90033ff 	str	wzr, [sp,#48]
  cc:	9100e748 	add	x8, x26, #0x39
  d0:	3900e3ff 	strb	wzr, [sp,#56]
  d4:	910003e0 	mov	x0, sp
  d8:	aa1603e1 	mov	x1, x22
  dc:	aa1503e2 	mov	x2, x21
  e0:	aa1403e3 	mov	x3, x20
  e4:	2a1303e4 	mov	w4, w19
  e8:	a90ba3f8 	stp	x24, x8, [sp,#184]
  ec:	f9006be8 	str	x8, [sp,#208]
  f0:	94000000 	bl	0 <stbi_loadf>
  f4:	aa0003f3 	mov	x19, x0
  f8:	aa1703e0 	mov	x0, x23
  fc:	94000000 	bl	0 <fclose>
 100:	f9401728 	ldr	x8, [x25,#40]
 104:	f85a83a9 	ldur	x9, [x29,#-88]
 108:	eb09011f 	cmp	x8, x9
 10c:	54000141 	b.ne	134 <stbi_loadf+0x134>
 110:	aa1303e0 	mov	x0, x19
 114:	a9537bfd 	ldp	x29, x30, [sp,#304]
 118:	a9524ff4 	ldp	x20, x19, [sp,#288]
 11c:	a95157f6 	ldp	x22, x21, [sp,#272]
 120:	a9505ff8 	ldp	x24, x23, [sp,#256]
 124:	a94f67fa 	ldp	x26, x25, [sp,#240]
 128:	f94073fc 	ldr	x28, [sp,#224]
 12c:	910503ff 	add	sp, sp, #0x140
 130:	d65f03c0 	ret
 134:	94000000 	bl	0 <__stack_chk_fail>

Disassembly of section .text.stbi_loadf_from_file:

0000000000000000 <stbi_loadf_from_file>:
   0:	d104c3ff 	sub	sp, sp, #0x130
   4:	a90e67fc 	stp	x28, x25, [sp,#224]
   8:	a90f5ff8 	stp	x24, x23, [sp,#240]
   c:	a91057f6 	stp	x22, x21, [sp,#256]
  10:	a9114ff4 	stp	x20, x19, [sp,#272]
  14:	a9127bfd 	stp	x29, x30, [sp,#288]
  18:	910483fd 	add	x29, sp, #0x120
  1c:	90000008 	adrp	x8, 0 <stbi_loadf_from_file>
  20:	d53bd058 	mrs	x24, tpidr_el0
  24:	91000108 	add	x8, x8, #0x0
  28:	f940170a 	ldr	x10, [x24,#40]
  2c:	3dc00100 	ldr	q0, [x8]
  30:	f9400908 	ldr	x8, [x8,#16]
  34:	90000009 	adrp	x9, 0 <stbi_loadf_from_file>
  38:	f81b83aa 	stur	x10, [x29,#-72]
  3c:	3d8007e0 	str	q0, [sp,#16]
  40:	fd400121 	ldr	d1, [x9]
  44:	a90203e8 	stp	x8, x0, [sp,#32]
  48:	f9400be8 	ldr	x8, [sp,#16]
  4c:	910003f9 	mov	x25, sp
  50:	9100e337 	add	x23, x25, #0x38
  54:	aa0203f5 	mov	x21, x2
  58:	aa0103f6 	mov	x22, x1
  5c:	52801002 	mov	w2, #0x80                  	// #128
  60:	aa1703e1 	mov	x1, x23
  64:	2a0403f3 	mov	w19, w4
  68:	aa0303f4 	mov	x20, x3
  6c:	fd001be1 	str	d1, [sp,#48]
  70:	f90067f7 	str	x23, [sp,#200]
  74:	d63f0100 	blr	x8
  78:	34000080 	cbz	w0, 88 <stbi_loadf_from_file+0x88>
  7c:	8b20c328 	add	x8, x25, w0, sxtw
  80:	9100e108 	add	x8, x8, #0x38
  84:	14000004 	b	94 <stbi_loadf_from_file+0x94>
  88:	b90033ff 	str	wzr, [sp,#48]
  8c:	9100e728 	add	x8, x25, #0x39
  90:	3900e3ff 	strb	wzr, [sp,#56]
  94:	910003e0 	mov	x0, sp
  98:	aa1603e1 	mov	x1, x22
  9c:	aa1503e2 	mov	x2, x21
  a0:	aa1403e3 	mov	x3, x20
  a4:	2a1303e4 	mov	w4, w19
  a8:	a90ba3f7 	stp	x23, x8, [sp,#184]
  ac:	f9006be8 	str	x8, [sp,#208]
  b0:	94000000 	bl	0 <stbi_loadf_from_file>
  b4:	f9401708 	ldr	x8, [x24,#40]
  b8:	f85b83a9 	ldur	x9, [x29,#-72]
  bc:	eb09011f 	cmp	x8, x9
  c0:	54000101 	b.ne	e0 <stbi_loadf_from_file+0xe0>
  c4:	a9527bfd 	ldp	x29, x30, [sp,#288]
  c8:	a9514ff4 	ldp	x20, x19, [sp,#272]
  cc:	a95057f6 	ldp	x22, x21, [sp,#256]
  d0:	a94f5ff8 	ldp	x24, x23, [sp,#240]
  d4:	a94e67fc 	ldp	x28, x25, [sp,#224]
  d8:	9104c3ff 	add	sp, sp, #0x130
  dc:	d65f03c0 	ret
  e0:	94000000 	bl	0 <__stack_chk_fail>

Disassembly of section .text.stbi_is_hdr_from_memory:

0000000000000000 <stbi_is_hdr_from_memory>:
   0:	d10403ff 	sub	sp, sp, #0x100
   4:	f90073f3 	str	x19, [sp,#224]
   8:	a90f7bfd 	stp	x29, x30, [sp,#240]
   c:	9103c3fd 	add	x29, sp, #0xf0
  10:	d53bd053 	mrs	x19, tpidr_el0
  14:	f9401668 	ldr	x8, [x19,#40]
  18:	8b21c009 	add	x9, x0, w1, sxtw
  1c:	f81e83a8 	stur	x8, [x29,#-24]
  20:	a90ca7e0 	stp	x0, x9, [sp,#200]
  24:	a90ba7e0 	stp	x0, x9, [sp,#184]
  28:	910003e0 	mov	x0, sp
  2c:	f9000bff 	str	xzr, [sp,#16]
  30:	b90033ff 	str	wzr, [sp,#48]
  34:	94000000 	bl	0 <stbi_is_hdr_from_memory>
  38:	f9401668 	ldr	x8, [x19,#40]
  3c:	f85e83a9 	ldur	x9, [x29,#-24]
  40:	eb09011f 	cmp	x8, x9
  44:	540000a1 	b.ne	58 <stbi_is_hdr_from_memory+0x58>
  48:	a94f7bfd 	ldp	x29, x30, [sp,#240]
  4c:	f94073f3 	ldr	x19, [sp,#224]
  50:	910403ff 	add	sp, sp, #0x100
  54:	d65f03c0 	ret
  58:	94000000 	bl	0 <__stack_chk_fail>

Disassembly of section .text._ZL14stbi__hdr_testP13stbi__context:

0000000000000000 <_ZL14stbi__hdr_testP13stbi__context>:
   0:	f81c0ff7 	str	x23, [sp,#-64]!
   4:	a90157f6 	stp	x22, x21, [sp,#16]
   8:	a9024ff4 	stp	x20, x19, [sp,#32]
   c:	a9037bfd 	stp	x29, x30, [sp,#48]
  10:	9100c3fd 	add	x29, sp, #0x30
  14:	a94ba009 	ldp	x9, x8, [x0,#184]
  18:	90000017 	adrp	x23, 0 <_ZL14stbi__hdr_testP13stbi__context>
  1c:	aa0003f3 	mov	x19, x0
  20:	aa1f03f6 	mov	x22, xzr
  24:	9100e014 	add	x20, x0, #0x38
  28:	9100e415 	add	x21, x0, #0x39
  2c:	910002f7 	add	x23, x23, #0x0
  30:	eb08013f 	cmp	x9, x8
  34:	54000122 	b.cs	58 <_ZL14stbi__hdr_testP13stbi__context+0x58>
  38:	9100052b 	add	x11, x9, #0x1
  3c:	f9005e6b 	str	x11, [x19,#184]
  40:	3940012a 	ldrb	w10, [x9]
  44:	aa0b03e9 	mov	x9, x11
  48:	38766aeb 	ldrb	w11, [x23,x22]
  4c:	6b0b015f 	cmp	w10, w11
  50:	540002e0 	b.eq	ac <_ZL14stbi__hdr_testP13stbi__context+0xac>
  54:	1400001d 	b	c8 <_ZL14stbi__hdr_testP13stbi__context+0xc8>
  58:	b940326a 	ldr	w10, [x19,#48]
  5c:	3400022a 	cbz	w10, a0 <_ZL14stbi__hdr_testP13stbi__context+0xa0>
  60:	f9400a68 	ldr	x8, [x19,#16]
  64:	f9401660 	ldr	x0, [x19,#40]
  68:	b9403662 	ldr	w2, [x19,#52]
  6c:	aa1403e1 	mov	x1, x20
  70:	d63f0100 	blr	x8
  74:	340000a0 	cbz	w0, 88 <_ZL14stbi__hdr_testP13stbi__context+0x88>
  78:	aa1303e8 	mov	x8, x19
  7c:	38438d0a 	ldrb	w10, [x8,#56]!
  80:	8b20c108 	add	x8, x8, w0, sxtw
  84:	14000005 	b	98 <_ZL14stbi__hdr_testP13stbi__context+0x98>
  88:	2a1f03ea 	mov	w10, wzr
  8c:	b900327f 	str	wzr, [x19,#48]
  90:	3900e27f 	strb	wzr, [x19,#56]
  94:	aa1503e8 	mov	x8, x21
  98:	aa1503e9 	mov	x9, x21
  9c:	a90ba275 	stp	x21, x8, [x19,#184]
  a0:	38766aeb 	ldrb	w11, [x23,x22]
  a4:	6b0b015f 	cmp	w10, w11
  a8:	54000101 	b.ne	c8 <_ZL14stbi__hdr_testP13stbi__context+0xc8>
  ac:	910006d6 	add	x22, x22, #0x1
  b0:	f1002edf 	cmp	x22, #0xb
  b4:	54fffbe1 	b.ne	30 <_ZL14stbi__hdr_testP13stbi__context+0x30>
  b8:	3ccc8260 	ldur	q0, [x19,#200]
  bc:	52800020 	mov	w0, #0x1                   	// #1
  c0:	3c8b8260 	stur	q0, [x19,#184]
  c4:	140000e8 	b	464 <_ZL14stbi__hdr_testP13stbi__context+0x464>
  c8:	a94ca269 	ldp	x9, x8, [x19,#200]
  cc:	eb08013f 	cmp	x9, x8
  d0:	a90ba269 	stp	x9, x8, [x19,#184]
  d4:	54000382 	b.cs	144 <_ZL14stbi__hdr_testP13stbi__context+0x144>
  d8:	9100052a 	add	x10, x9, #0x1
  dc:	f9005e6a 	str	x10, [x19,#184]
  e0:	39400129 	ldrb	w9, [x9]
  e4:	71008d3f 	cmp	w9, #0x23
  e8:	54001b81 	b.ne	458 <_ZL14stbi__hdr_testP13stbi__context+0x458>
  ec:	eb08015f 	cmp	x10, x8
  f0:	540004a2 	b.cs	184 <_ZL14stbi__hdr_testP13stbi__context+0x184>
  f4:	9100054b 	add	x11, x10, #0x1
  f8:	f9005e6b 	str	x11, [x19,#184]
  fc:	39400149 	ldrb	w9, [x10]
 100:	7100fd3f 	cmp	w9, #0x3f
 104:	54001aa1 	b.ne	458 <_ZL14stbi__hdr_testP13stbi__context+0x458>
 108:	eb08017f 	cmp	x11, x8
 10c:	540006e2 	b.cs	1e8 <_ZL14stbi__hdr_testP13stbi__context+0x1e8>
 110:	9100056a 	add	x10, x11, #0x1
 114:	f9005e6a 	str	x10, [x19,#184]
 118:	39400169 	ldrb	w9, [x11]
 11c:	7101493f 	cmp	w9, #0x52
 120:	540019c1 	b.ne	458 <_ZL14stbi__hdr_testP13stbi__context+0x458>
 124:	eb08015f 	cmp	x10, x8
 128:	54000922 	b.cs	24c <_ZL14stbi__hdr_testP13stbi__context+0x24c>
 12c:	9100054b 	add	x11, x10, #0x1
 130:	f9005e6b 	str	x11, [x19,#184]
 134:	39400149 	ldrb	w9, [x10]
 138:	71011d3f 	cmp	w9, #0x47
 13c:	54000ca0 	b.eq	2d0 <_ZL14stbi__hdr_testP13stbi__context+0x2d0>
 140:	140000c6 	b	458 <_ZL14stbi__hdr_testP13stbi__context+0x458>
 144:	b9403268 	ldr	w8, [x19,#48]
 148:	34001888 	cbz	w8, 458 <_ZL14stbi__hdr_testP13stbi__context+0x458>
 14c:	f9400a68 	ldr	x8, [x19,#16]
 150:	f9401660 	ldr	x0, [x19,#40]
 154:	b9403662 	ldr	w2, [x19,#52]
 158:	aa1403e1 	mov	x1, x20
 15c:	d63f0100 	blr	x8
 160:	34000320 	cbz	w0, 1c4 <_ZL14stbi__hdr_testP13stbi__context+0x1c4>
 164:	aa1303e8 	mov	x8, x19
 168:	38438d09 	ldrb	w9, [x8,#56]!
 16c:	8b20c108 	add	x8, x8, w0, sxtw
 170:	aa1503ea 	mov	x10, x21
 174:	a90ba275 	stp	x21, x8, [x19,#184]
 178:	71008d3f 	cmp	w9, #0x23
 17c:	54fffb80 	b.eq	ec <_ZL14stbi__hdr_testP13stbi__context+0xec>
 180:	140000b6 	b	458 <_ZL14stbi__hdr_testP13stbi__context+0x458>
 184:	b9403268 	ldr	w8, [x19,#48]
 188:	34001688 	cbz	w8, 458 <_ZL14stbi__hdr_testP13stbi__context+0x458>
 18c:	f9400a68 	ldr	x8, [x19,#16]
 190:	f9401660 	ldr	x0, [x19,#40]
 194:	b9403662 	ldr	w2, [x19,#52]
 198:	aa1403e1 	mov	x1, x20
 19c:	d63f0100 	blr	x8
 1a0:	34000440 	cbz	w0, 228 <_ZL14stbi__hdr_testP13stbi__context+0x228>
 1a4:	aa1303e8 	mov	x8, x19
 1a8:	38438d09 	ldrb	w9, [x8,#56]!
 1ac:	8b20c108 	add	x8, x8, w0, sxtw
 1b0:	a90ba275 	stp	x21, x8, [x19,#184]
 1b4:	aa1503eb 	mov	x11, x21
 1b8:	7100fd3f 	cmp	w9, #0x3f
 1bc:	54fffa60 	b.eq	108 <_ZL14stbi__hdr_testP13stbi__context+0x108>
 1c0:	140000a6 	b	458 <_ZL14stbi__hdr_testP13stbi__context+0x458>
 1c4:	2a1f03e9 	mov	w9, wzr
 1c8:	b900327f 	str	wzr, [x19,#48]
 1cc:	3900e27f 	strb	wzr, [x19,#56]
 1d0:	aa1503e8 	mov	x8, x21
 1d4:	aa1503ea 	mov	x10, x21
 1d8:	a90ba275 	stp	x21, x8, [x19,#184]
 1dc:	71008d3f 	cmp	w9, #0x23
 1e0:	54fff860 	b.eq	ec <_ZL14stbi__hdr_testP13stbi__context+0xec>
 1e4:	1400009d 	b	458 <_ZL14stbi__hdr_testP13stbi__context+0x458>
 1e8:	b9403268 	ldr	w8, [x19,#48]
 1ec:	34001368 	cbz	w8, 458 <_ZL14stbi__hdr_testP13stbi__context+0x458>
 1f0:	f9400a68 	ldr	x8, [x19,#16]
 1f4:	f9401660 	ldr	x0, [x19,#40]
 1f8:	b9403662 	ldr	w2, [x19,#52]
 1fc:	aa1403e1 	mov	x1, x20
 200:	d63f0100 	blr	x8
 204:	34000440 	cbz	w0, 28c <_ZL14stbi__hdr_testP13stbi__context+0x28c>
 208:	aa1303e8 	mov	x8, x19
 20c:	38438d09 	ldrb	w9, [x8,#56]!
 210:	8b20c108 	add	x8, x8, w0, sxtw
 214:	a90ba275 	stp	x21, x8, [x19,#184]
 218:	aa1503ea 	mov	x10, x21
 21c:	7101493f 	cmp	w9, #0x52
 220:	54fff820 	b.eq	124 <_ZL14stbi__hdr_testP13stbi__context+0x124>
 224:	1400008d 	b	458 <_ZL14stbi__hdr_testP13stbi__context+0x458>
 228:	2a1f03e9 	mov	w9, wzr
 22c:	aa1503e8 	mov	x8, x21
 230:	b900327f 	str	wzr, [x19,#48]
 234:	3900e27f 	strb	wzr, [x19,#56]
 238:	a90ba275 	stp	x21, x8, [x19,#184]
 23c:	aa1503eb 	mov	x11, x21
 240:	7100fd3f 	cmp	w9, #0x3f
 244:	54fff620 	b.eq	108 <_ZL14stbi__hdr_testP13stbi__context+0x108>
 248:	14000084 	b	458 <_ZL14stbi__hdr_testP13stbi__context+0x458>
 24c:	b9403268 	ldr	w8, [x19,#48]
 250:	34001048 	cbz	w8, 458 <_ZL14stbi__hdr_testP13stbi__context+0x458>
 254:	f9400a68 	ldr	x8, [x19,#16]
 258:	f9401660 	ldr	x0, [x19,#40]
 25c:	b9403662 	ldr	w2, [x19,#52]
 260:	aa1403e1 	mov	x1, x20
 264:	d63f0100 	blr	x8
 268:	34000240 	cbz	w0, 2b0 <_ZL14stbi__hdr_testP13stbi__context+0x2b0>
 26c:	aa1303e8 	mov	x8, x19
 270:	38438d09 	ldrb	w9, [x8,#56]!
 274:	8b20c108 	add	x8, x8, w0, sxtw
 278:	a90ba275 	stp	x21, x8, [x19,#184]
 27c:	aa1503eb 	mov	x11, x21
 280:	71011d3f 	cmp	w9, #0x47
 284:	54000260 	b.eq	2d0 <_ZL14stbi__hdr_testP13stbi__context+0x2d0>
 288:	14000074 	b	458 <_ZL14stbi__hdr_testP13stbi__context+0x458>
 28c:	2a1f03e9 	mov	w9, wzr
 290:	aa1503e8 	mov	x8, x21
 294:	b900327f 	str	wzr, [x19,#48]
 298:	3900e27f 	strb	wzr, [x19,#56]
 29c:	a90ba275 	stp	x21, x8, [x19,#184]
 2a0:	aa1503ea 	mov	x10, x21
 2a4:	7101493f 	cmp	w9, #0x52
 2a8:	54fff3e0 	b.eq	124 <_ZL14stbi__hdr_testP13stbi__context+0x124>
 2ac:	1400006b 	b	458 <_ZL14stbi__hdr_testP13stbi__context+0x458>
 2b0:	2a1f03e9 	mov	w9, wzr
 2b4:	aa1503e8 	mov	x8, x21
 2b8:	b900327f 	str	wzr, [x19,#48]
 2bc:	3900e27f 	strb	wzr, [x19,#56]
 2c0:	a90ba275 	stp	x21, x8, [x19,#184]
 2c4:	aa1503eb 	mov	x11, x21
 2c8:	71011d3f 	cmp	w9, #0x47
 2cc:	54000c61 	b.ne	458 <_ZL14stbi__hdr_testP13stbi__context+0x458>
 2d0:	eb08017f 	cmp	x11, x8
 2d4:	540000e2 	b.cs	2f0 <_ZL14stbi__hdr_testP13stbi__context+0x2f0>
 2d8:	9100056a 	add	x10, x11, #0x1
 2dc:	f9005e6a 	str	x10, [x19,#184]
 2e0:	39400169 	ldrb	w9, [x11]
 2e4:	7101093f 	cmp	w9, #0x42
 2e8:	54000340 	b.eq	350 <_ZL14stbi__hdr_testP13stbi__context+0x350>
 2ec:	1400005b 	b	458 <_ZL14stbi__hdr_testP13stbi__context+0x458>
 2f0:	b9403268 	ldr	w8, [x19,#48]
 2f4:	34000b28 	cbz	w8, 458 <_ZL14stbi__hdr_testP13stbi__context+0x458>
 2f8:	f9400a68 	ldr	x8, [x19,#16]
 2fc:	f9401660 	ldr	x0, [x19,#40]
 300:	b9403662 	ldr	w2, [x19,#52]
 304:	aa1403e1 	mov	x1, x20
 308:	d63f0100 	blr	x8
 30c:	34000120 	cbz	w0, 330 <_ZL14stbi__hdr_testP13stbi__context+0x330>
 310:	aa1303e8 	mov	x8, x19
 314:	38438d09 	ldrb	w9, [x8,#56]!
 318:	8b20c108 	add	x8, x8, w0, sxtw
 31c:	a90ba275 	stp	x21, x8, [x19,#184]
 320:	aa1503ea 	mov	x10, x21
 324:	7101093f 	cmp	w9, #0x42
 328:	54000140 	b.eq	350 <_ZL14stbi__hdr_testP13stbi__context+0x350>
 32c:	1400004b 	b	458 <_ZL14stbi__hdr_testP13stbi__context+0x458>
 330:	2a1f03e9 	mov	w9, wzr
 334:	aa1503e8 	mov	x8, x21
 338:	b900327f 	str	wzr, [x19,#48]
 33c:	3900e27f 	strb	wzr, [x19,#56]
 340:	a90ba275 	stp	x21, x8, [x19,#184]
 344:	aa1503ea 	mov	x10, x21
 348:	7101093f 	cmp	w9, #0x42
 34c:	54000861 	b.ne	458 <_ZL14stbi__hdr_testP13stbi__context+0x458>
 350:	eb08015f 	cmp	x10, x8
 354:	540000e2 	b.cs	370 <_ZL14stbi__hdr_testP13stbi__context+0x370>
 358:	9100054b 	add	x11, x10, #0x1
 35c:	f9005e6b 	str	x11, [x19,#184]
 360:	39400149 	ldrb	w9, [x10]
 364:	7101153f 	cmp	w9, #0x45
 368:	54000340 	b.eq	3d0 <_ZL14stbi__hdr_testP13stbi__context+0x3d0>
 36c:	1400003b 	b	458 <_ZL14stbi__hdr_testP13stbi__context+0x458>
 370:	b9403268 	ldr	w8, [x19,#48]
 374:	34000728 	cbz	w8, 458 <_ZL14stbi__hdr_testP13stbi__context+0x458>
 378:	f9400a68 	ldr	x8, [x19,#16]
 37c:	f9401660 	ldr	x0, [x19,#40]
 380:	b9403662 	ldr	w2, [x19,#52]
 384:	aa1403e1 	mov	x1, x20
 388:	d63f0100 	blr	x8
 38c:	34000120 	cbz	w0, 3b0 <_ZL14stbi__hdr_testP13stbi__context+0x3b0>
 390:	aa1303e8 	mov	x8, x19
 394:	38438d09 	ldrb	w9, [x8,#56]!
 398:	8b20c108 	add	x8, x8, w0, sxtw
 39c:	a90ba275 	stp	x21, x8, [x19,#184]
 3a0:	aa1503eb 	mov	x11, x21
 3a4:	7101153f 	cmp	w9, #0x45
 3a8:	54000140 	b.eq	3d0 <_ZL14stbi__hdr_testP13stbi__context+0x3d0>
 3ac:	1400002b 	b	458 <_ZL14stbi__hdr_testP13stbi__context+0x458>
 3b0:	2a1f03e9 	mov	w9, wzr
 3b4:	aa1503e8 	mov	x8, x21
 3b8:	b900327f 	str	wzr, [x19,#48]
 3bc:	3900e27f 	strb	wzr, [x19,#56]
 3c0:	a90ba275 	stp	x21, x8, [x19,#184]
 3c4:	aa1503eb 	mov	x11, x21
 3c8:	7101153f 	cmp	w9, #0x45
 3cc:	54000461 	b.ne	458 <_ZL14stbi__hdr_testP13stbi__context+0x458>
 3d0:	eb08017f 	cmp	x11, x8
 3d4:	540000e2 	b.cs	3f0 <_ZL14stbi__hdr_testP13stbi__context+0x3f0>
 3d8:	91000568 	add	x8, x11, #0x1
 3dc:	f9005e68 	str	x8, [x19,#184]
 3e0:	39400168 	ldrb	w8, [x11]
 3e4:	7100291f 	cmp	w8, #0xa
 3e8:	54000300 	b.eq	448 <_ZL14stbi__hdr_testP13stbi__context+0x448>
 3ec:	1400001b 	b	458 <_ZL14stbi__hdr_testP13stbi__context+0x458>
 3f0:	b9403268 	ldr	w8, [x19,#48]
 3f4:	34000328 	cbz	w8, 458 <_ZL14stbi__hdr_testP13stbi__context+0x458>
 3f8:	f9400a68 	ldr	x8, [x19,#16]
 3fc:	f9401660 	ldr	x0, [x19,#40]
 400:	b9403662 	ldr	w2, [x19,#52]
 404:	aa1403e1 	mov	x1, x20
 408:	d63f0100 	blr	x8
 40c:	34000100 	cbz	w0, 42c <_ZL14stbi__hdr_testP13stbi__context+0x42c>
 410:	aa1303e9 	mov	x9, x19
 414:	38438d28 	ldrb	w8, [x9,#56]!
 418:	8b20c129 	add	x9, x9, w0, sxtw
 41c:	a90ba675 	stp	x21, x9, [x19,#184]
 420:	7100291f 	cmp	w8, #0xa
 424:	54000120 	b.eq	448 <_ZL14stbi__hdr_testP13stbi__context+0x448>
 428:	1400000c 	b	458 <_ZL14stbi__hdr_testP13stbi__context+0x458>
 42c:	2a1f03e8 	mov	w8, wzr
 430:	aa1503e9 	mov	x9, x21
 434:	b900327f 	str	wzr, [x19,#48]
 438:	3900e27f 	strb	wzr, [x19,#56]
 43c:	a90ba675 	stp	x21, x9, [x19,#184]
 440:	7100291f 	cmp	w8, #0xa
 444:	540000a1 	b.ne	458 <_ZL14stbi__hdr_testP13stbi__context+0x458>
 448:	a94ca668 	ldp	x8, x9, [x19,#200]
 44c:	52800020 	mov	w0, #0x1                   	// #1
 450:	a90ba668 	stp	x8, x9, [x19,#184]
 454:	14000003 	b	460 <_ZL14stbi__hdr_testP13stbi__context+0x460>
 458:	a94ca668 	ldp	x8, x9, [x19,#200]
 45c:	2a1f03e0 	mov	w0, wzr
 460:	a90ba668 	stp	x8, x9, [x19,#184]
 464:	a9437bfd 	ldp	x29, x30, [sp,#48]
 468:	a9424ff4 	ldp	x20, x19, [sp,#32]
 46c:	a94157f6 	ldp	x22, x21, [sp,#16]
 470:	f84407f7 	ldr	x23, [sp],#64
 474:	d65f03c0 	ret

Disassembly of section .text.stbi_is_hdr:

0000000000000000 <stbi_is_hdr>:
   0:	d10483ff 	sub	sp, sp, #0x120
   4:	a90e5ffc 	stp	x28, x23, [sp,#224]
   8:	a90f57f6 	stp	x22, x21, [sp,#240]
   c:	a9104ff4 	stp	x20, x19, [sp,#256]
  10:	a9117bfd 	stp	x29, x30, [sp,#272]
  14:	910443fd 	add	x29, sp, #0x110
  18:	d53bd056 	mrs	x22, tpidr_el0
  1c:	f94016c8 	ldr	x8, [x22,#40]
  20:	90000001 	adrp	x1, 0 <stbi_is_hdr>
  24:	91000021 	add	x1, x1, #0x0
  28:	f81c83a8 	stur	x8, [x29,#-56]
  2c:	94000000 	bl	0 <fopen>
  30:	b4000320 	cbz	x0, 94 <stbi_is_hdr+0x94>
  34:	aa0003f3 	mov	x19, x0
  38:	94000000 	bl	0 <ftell>
  3c:	90000008 	adrp	x8, 0 <stbi_is_hdr>
  40:	91000108 	add	x8, x8, #0x0
  44:	3dc00100 	ldr	q0, [x8]
  48:	f9400908 	ldr	x8, [x8,#16]
  4c:	90000009 	adrp	x9, 0 <stbi_is_hdr>
  50:	fd400121 	ldr	d1, [x9]
  54:	3d8007e0 	str	q0, [sp,#16]
  58:	a9024fe8 	stp	x8, x19, [sp,#32]
  5c:	f9400be8 	ldr	x8, [sp,#16]
  60:	910003f7 	mov	x23, sp
  64:	9100e2f5 	add	x21, x23, #0x38
  68:	aa0003f4 	mov	x20, x0
  6c:	52801002 	mov	w2, #0x80                  	// #128
  70:	aa1303e0 	mov	x0, x19
  74:	aa1503e1 	mov	x1, x21
  78:	fd001be1 	str	d1, [sp,#48]
  7c:	f90067f5 	str	x21, [sp,#200]
  80:	d63f0100 	blr	x8
  84:	34000140 	cbz	w0, ac <stbi_is_hdr+0xac>
  88:	8b20c2e8 	add	x8, x23, w0, sxtw
  8c:	9100e108 	add	x8, x8, #0x38
  90:	1400000a 	b	b8 <stbi_is_hdr+0xb8>
  94:	2a1f03f5 	mov	w21, wzr
  98:	f94016c8 	ldr	x8, [x22,#40]
  9c:	f85c83a9 	ldur	x9, [x29,#-56]
  a0:	eb09011f 	cmp	x8, x9
  a4:	54000280 	b.eq	f4 <stbi_is_hdr+0xf4>
  a8:	1400001a 	b	110 <stbi_is_hdr+0x110>
  ac:	b90033ff 	str	wzr, [sp,#48]
  b0:	9100e6e8 	add	x8, x23, #0x39
  b4:	3900e3ff 	strb	wzr, [sp,#56]
  b8:	910003e0 	mov	x0, sp
  bc:	a90ba3f5 	stp	x21, x8, [sp,#184]
  c0:	f9006be8 	str	x8, [sp,#208]
  c4:	94000000 	bl	0 <stbi_is_hdr>
  c8:	2a0003f5 	mov	w21, w0
  cc:	aa1303e0 	mov	x0, x19
  d0:	aa1403e1 	mov	x1, x20
  d4:	2a1f03e2 	mov	w2, wzr
  d8:	94000000 	bl	0 <fseek>
  dc:	aa1303e0 	mov	x0, x19
  e0:	94000000 	bl	0 <fclose>
  e4:	f94016c8 	ldr	x8, [x22,#40]
  e8:	f85c83a9 	ldur	x9, [x29,#-56]
  ec:	eb09011f 	cmp	x8, x9
  f0:	54000101 	b.ne	110 <stbi_is_hdr+0x110>
  f4:	2a1503e0 	mov	w0, w21
  f8:	a9517bfd 	ldp	x29, x30, [sp,#272]
  fc:	a9504ff4 	ldp	x20, x19, [sp,#256]
 100:	a94f57f6 	ldp	x22, x21, [sp,#240]
 104:	a94e5ffc 	ldp	x28, x23, [sp,#224]
 108:	910483ff 	add	sp, sp, #0x120
 10c:	d65f03c0 	ret
 110:	94000000 	bl	0 <__stack_chk_fail>

Disassembly of section .text.stbi_is_hdr_from_file:

0000000000000000 <stbi_is_hdr_from_file>:
   0:	d10483ff 	sub	sp, sp, #0x120
   4:	a90e5ffc 	stp	x28, x23, [sp,#224]
   8:	a90f57f6 	stp	x22, x21, [sp,#240]
   c:	a9104ff4 	stp	x20, x19, [sp,#256]
  10:	a9117bfd 	stp	x29, x30, [sp,#272]
  14:	910443fd 	add	x29, sp, #0x110
  18:	d53bd056 	mrs	x22, tpidr_el0
  1c:	f94016c8 	ldr	x8, [x22,#40]
  20:	aa0003f3 	mov	x19, x0
  24:	f81c83a8 	stur	x8, [x29,#-56]
  28:	94000000 	bl	0 <ftell>
  2c:	90000008 	adrp	x8, 0 <stbi_is_hdr_from_file>
  30:	91000108 	add	x8, x8, #0x0
  34:	3dc00100 	ldr	q0, [x8]
  38:	f9400908 	ldr	x8, [x8,#16]
  3c:	90000009 	adrp	x9, 0 <stbi_is_hdr_from_file>
  40:	fd400121 	ldr	d1, [x9]
  44:	3d8007e0 	str	q0, [sp,#16]
  48:	a9024fe8 	stp	x8, x19, [sp,#32]
  4c:	f9400be8 	ldr	x8, [sp,#16]
  50:	910003f7 	mov	x23, sp
  54:	9100e2f5 	add	x21, x23, #0x38
  58:	aa0003f4 	mov	x20, x0
  5c:	52801002 	mov	w2, #0x80                  	// #128
  60:	aa1303e0 	mov	x0, x19
  64:	aa1503e1 	mov	x1, x21
  68:	fd001be1 	str	d1, [sp,#48]
  6c:	f90067f5 	str	x21, [sp,#200]
  70:	d63f0100 	blr	x8
  74:	34000080 	cbz	w0, 84 <stbi_is_hdr_from_file+0x84>
  78:	8b20c2e8 	add	x8, x23, w0, sxtw
  7c:	9100e108 	add	x8, x8, #0x38
  80:	14000004 	b	90 <stbi_is_hdr_from_file+0x90>
  84:	b90033ff 	str	wzr, [sp,#48]
  88:	9100e6e8 	add	x8, x23, #0x39
  8c:	3900e3ff 	strb	wzr, [sp,#56]
  90:	910003e0 	mov	x0, sp
  94:	a90ba3f5 	stp	x21, x8, [sp,#184]
  98:	f9006be8 	str	x8, [sp,#208]
  9c:	94000000 	bl	0 <stbi_is_hdr_from_file>
  a0:	2a0003f5 	mov	w21, w0
  a4:	aa1303e0 	mov	x0, x19
  a8:	aa1403e1 	mov	x1, x20
  ac:	2a1f03e2 	mov	w2, wzr
  b0:	94000000 	bl	0 <fseek>
  b4:	f94016c8 	ldr	x8, [x22,#40]
  b8:	f85c83a9 	ldur	x9, [x29,#-56]
  bc:	eb09011f 	cmp	x8, x9
  c0:	54000101 	b.ne	e0 <stbi_is_hdr_from_file+0xe0>
  c4:	2a1503e0 	mov	w0, w21
  c8:	a9517bfd 	ldp	x29, x30, [sp,#272]
  cc:	a9504ff4 	ldp	x20, x19, [sp,#256]
  d0:	a94f57f6 	ldp	x22, x21, [sp,#240]
  d4:	a94e5ffc 	ldp	x28, x23, [sp,#224]
  d8:	910483ff 	add	sp, sp, #0x120
  dc:	d65f03c0 	ret
  e0:	94000000 	bl	0 <__stack_chk_fail>

Disassembly of section .text.stbi_is_hdr_from_callbacks:

0000000000000000 <stbi_is_hdr_from_callbacks>:
   0:	d10443ff 	sub	sp, sp, #0x110
   4:	a90e57fc 	stp	x28, x21, [sp,#224]
   8:	a90f4ff4 	stp	x20, x19, [sp,#240]
   c:	a9107bfd 	stp	x29, x30, [sp,#256]
  10:	910403fd 	add	x29, sp, #0x100
  14:	d53bd054 	mrs	x20, tpidr_el0
  18:	f9401688 	ldr	x8, [x20,#40]
  1c:	910003f5 	mov	x21, sp
  20:	9100e2b3 	add	x19, x21, #0x38
  24:	52801002 	mov	w2, #0x80                  	// #128
  28:	f81d83a8 	stur	x8, [x29,#-40]
  2c:	3dc00000 	ldr	q0, [x0]
  30:	90000008 	adrp	x8, 0 <stbi_is_hdr_from_callbacks>
  34:	f9400809 	ldr	x9, [x0,#16]
  38:	fd400101 	ldr	d1, [x8]
  3c:	3d8007e0 	str	q0, [sp,#16]
  40:	f9400be8 	ldr	x8, [sp,#16]
  44:	a90207e9 	stp	x9, x1, [sp,#32]
  48:	aa0103e0 	mov	x0, x1
  4c:	aa1303e1 	mov	x1, x19
  50:	fd001be1 	str	d1, [sp,#48]
  54:	f90067f3 	str	x19, [sp,#200]
  58:	d63f0100 	blr	x8
  5c:	34000080 	cbz	w0, 6c <stbi_is_hdr_from_callbacks+0x6c>
  60:	8b20c2a8 	add	x8, x21, w0, sxtw
  64:	9100e108 	add	x8, x8, #0x38
  68:	14000004 	b	78 <stbi_is_hdr_from_callbacks+0x78>
  6c:	b90033ff 	str	wzr, [sp,#48]
  70:	9100e6a8 	add	x8, x21, #0x39
  74:	3900e3ff 	strb	wzr, [sp,#56]
  78:	910003e0 	mov	x0, sp
  7c:	a90ba3f3 	stp	x19, x8, [sp,#184]
  80:	f9006be8 	str	x8, [sp,#208]
  84:	94000000 	bl	0 <stbi_is_hdr_from_callbacks>
  88:	f9401688 	ldr	x8, [x20,#40]
  8c:	f85d83a9 	ldur	x9, [x29,#-40]
  90:	eb09011f 	cmp	x8, x9
  94:	540000c1 	b.ne	ac <stbi_is_hdr_from_callbacks+0xac>
  98:	a9507bfd 	ldp	x29, x30, [sp,#256]
  9c:	a94f4ff4 	ldp	x20, x19, [sp,#240]
  a0:	a94e57fc 	ldp	x28, x21, [sp,#224]
  a4:	910443ff 	add	sp, sp, #0x110
  a8:	d65f03c0 	ret
  ac:	94000000 	bl	0 <__stack_chk_fail>

Disassembly of section .text.stbi_ldr_to_hdr_gamma:

0000000000000000 <stbi_ldr_to_hdr_gamma>:
   0:	90000008 	adrp	x8, 0 <stbi_ldr_to_hdr_gamma>
   4:	bd000100 	str	s0, [x8]
   8:	d65f03c0 	ret

Disassembly of section .text.stbi_ldr_to_hdr_scale:

0000000000000000 <stbi_ldr_to_hdr_scale>:
   0:	90000008 	adrp	x8, 0 <stbi_ldr_to_hdr_scale>
   4:	bd000100 	str	s0, [x8]
   8:	d65f03c0 	ret

Disassembly of section .text.stbi_hdr_to_ldr_gamma:

0000000000000000 <stbi_hdr_to_ldr_gamma>:
   0:	1e2e1001 	fmov	s1, #1.000000000000000000e+00
   4:	1e201820 	fdiv	s0, s1, s0
   8:	90000008 	adrp	x8, 0 <stbi_hdr_to_ldr_gamma>
   c:	bd000100 	str	s0, [x8]
  10:	d65f03c0 	ret

Disassembly of section .text.stbi_hdr_to_ldr_scale:

0000000000000000 <stbi_hdr_to_ldr_scale>:
   0:	1e2e1001 	fmov	s1, #1.000000000000000000e+00
   4:	1e201820 	fdiv	s0, s1, s0
   8:	90000008 	adrp	x8, 0 <stbi_hdr_to_ldr_scale>
   c:	bd000100 	str	s0, [x8]
  10:	d65f03c0 	ret

Disassembly of section .text.stbi_zlib_decode_malloc_guesssize:

0000000000000000 <stbi_zlib_decode_malloc_guesssize>:
   0:	a9bc5ffc 	stp	x28, x23, [sp,#-64]!
   4:	a90157f6 	stp	x22, x21, [sp,#16]
   8:	a9024ff4 	stp	x20, x19, [sp,#32]
   c:	a9037bfd 	stp	x29, x30, [sp,#48]
  10:	9100c3fd 	add	x29, sp, #0x30
  14:	d14007ff 	sub	sp, sp, #0x1, lsl #12
  18:	d10043ff 	sub	sp, sp, #0x10
  1c:	d53bd057 	mrs	x23, tpidr_el0
  20:	f94016e8 	ldr	x8, [x23,#40]
  24:	2a0203f4 	mov	w20, w2
  28:	aa0003f5 	mov	x21, x0
  2c:	93407e80 	sxtw	x0, w20
  30:	aa0303f3 	mov	x19, x3
  34:	2a0103f6 	mov	w22, w1
  38:	f81c83a8 	stur	x8, [x29,#-56]
  3c:	94000000 	bl	0 <malloc>
  40:	b40002e0 	cbz	x0, 9c <stbi_zlib_decode_malloc_guesssize+0x9c>
  44:	aa0003e1 	mov	x1, x0
  48:	8b36c2a8 	add	x8, x21, w22, sxtw
  4c:	910023e0 	add	x0, sp, #0x8
  50:	52800023 	mov	w3, #0x1                   	// #1
  54:	52800024 	mov	w4, #0x1                   	// #1
  58:	2a1403e2 	mov	w2, w20
  5c:	a900a3f5 	stp	x21, x8, [sp,#8]
  60:	94000000 	bl	0 <stbi_zlib_decode_malloc_guesssize>
  64:	34000160 	cbz	w0, 90 <stbi_zlib_decode_malloc_guesssize+0x90>
  68:	b4000313 	cbz	x19, c8 <stbi_zlib_decode_malloc_guesssize+0xc8>
  6c:	b94023e8 	ldr	w8, [sp,#32]
  70:	f94017e0 	ldr	x0, [sp,#40]
  74:	4b000108 	sub	w8, w8, w0
  78:	b9000268 	str	w8, [x19]
  7c:	f94016e8 	ldr	x8, [x23,#40]
  80:	f85c83a9 	ldur	x9, [x29,#-56]
  84:	eb09011f 	cmp	x8, x9
  88:	54000120 	b.eq	ac <stbi_zlib_decode_malloc_guesssize+0xac>
  8c:	14000014 	b	dc <stbi_zlib_decode_malloc_guesssize+0xdc>
  90:	f94017e0 	ldr	x0, [sp,#40]
  94:	94000000 	bl	0 <free>
  98:	aa1f03e0 	mov	x0, xzr
  9c:	f94016e8 	ldr	x8, [x23,#40]
  a0:	f85c83a9 	ldur	x9, [x29,#-56]
  a4:	eb09011f 	cmp	x8, x9
  a8:	540001a1 	b.ne	dc <stbi_zlib_decode_malloc_guesssize+0xdc>
  ac:	914007ff 	add	sp, sp, #0x1, lsl #12
  b0:	910043ff 	add	sp, sp, #0x10
  b4:	a9437bfd 	ldp	x29, x30, [sp,#48]
  b8:	a9424ff4 	ldp	x20, x19, [sp,#32]
  bc:	a94157f6 	ldp	x22, x21, [sp,#16]
  c0:	a8c45ffc 	ldp	x28, x23, [sp],#64
  c4:	d65f03c0 	ret
  c8:	f94017e0 	ldr	x0, [sp,#40]
  cc:	f94016e8 	ldr	x8, [x23,#40]
  d0:	f85c83a9 	ldur	x9, [x29,#-56]
  d4:	eb09011f 	cmp	x8, x9
  d8:	54fffea0 	b.eq	ac <stbi_zlib_decode_malloc_guesssize+0xac>
  dc:	94000000 	bl	0 <__stack_chk_fail>

Disassembly of section .text._ZL13stbi__do_zlibP10stbi__zbufPciii:

0000000000000000 <_ZL13stbi__do_zlibP10stbi__zbufPciii>:
   0:	a9ba6ffc 	stp	x28, x27, [sp,#-96]!
   4:	a90167fa 	stp	x26, x25, [sp,#16]
   8:	a9025ff8 	stp	x24, x23, [sp,#32]
   c:	a90357f6 	stp	x22, x21, [sp,#48]
  10:	a9044ff4 	stp	x20, x19, [sp,#64]
  14:	a9057bfd 	stp	x29, x30, [sp,#80]
  18:	910143fd 	add	x29, sp, #0x50
  1c:	d12803ff 	sub	sp, sp, #0xa00
  20:	d53bd04c 	mrs	x12, tpidr_el0
  24:	f9401588 	ldr	x8, [x12,#40]
  28:	aa0103f8 	mov	x24, x1
  2c:	aa0003f3 	mov	x19, x0
  30:	8b22c029 	add	x9, x1, w2, sxtw
  34:	9000000d 	adrp	x13, 0 <_ZL13stbi__do_zlibP10stbi__zbufPciii>
  38:	f81a03a8 	stur	x8, [x29,#-96]
  3c:	a9018401 	stp	x1, x1, [x0,#24]
  40:	f9001409 	str	x9, [x0,#40]
  44:	b9003003 	str	w3, [x0,#48]
  48:	34000444 	cbz	w4, d0 <_ZL13stbi__do_zlibP10stbi__zbufPciii+0xd0>
  4c:	a9402a69 	ldp	x9, x10, [x19]
  50:	eb0a013f 	cmp	x9, x10
  54:	54000122 	b.cs	78 <_ZL13stbi__do_zlibP10stbi__zbufPciii+0x78>
  58:	9100052b 	add	x11, x9, #0x1
  5c:	f900026b 	str	x11, [x19]
  60:	39400128 	ldrb	w8, [x9]
  64:	aa0b03e9 	mov	x9, x11
  68:	eb0a013f 	cmp	x9, x10
  6c:	540000c3 	b.cc	84 <_ZL13stbi__do_zlibP10stbi__zbufPciii+0x84>
  70:	2a1f03e9 	mov	w9, wzr
  74:	14000007 	b	90 <_ZL13stbi__do_zlibP10stbi__zbufPciii+0x90>
  78:	2a1f03e8 	mov	w8, wzr
  7c:	eb0a013f 	cmp	x9, x10
  80:	54ffff82 	b.cs	70 <_ZL13stbi__do_zlibP10stbi__zbufPciii+0x70>
  84:	9100052a 	add	x10, x9, #0x1
  88:	f900026a 	str	x10, [x19]
  8c:	39400129 	ldrb	w9, [x9]
  90:	2a0903ea 	mov	w10, w9
  94:	528f7beb 	mov	w11, #0x7bdf                	// #31711
  98:	72b7bdeb 	movk	w11, #0xbdef, lsl #16
  9c:	33181d0a 	bfi	w10, w8, #8, #8
  a0:	1b0b7d4a 	mul	w10, w10, w11
  a4:	528210ab 	mov	w11, #0x1085                	// #4229
  a8:	72a1084b 	movk	w11, #0x842, lsl #16
  ac:	6b0b015f 	cmp	w10, w11
  b0:	54000083 	b.cc	c0 <_ZL13stbi__do_zlibP10stbi__zbufPciii+0xc0>
  b4:	90000008 	adrp	x8, 0 <_ZL13stbi__do_zlibP10stbi__zbufPciii>
  b8:	91000108 	add	x8, x8, #0x0
  bc:	140002c4 	b	bcc <_ZL13stbi__do_zlibP10stbi__zbufPciii+0xbcc>
  c0:	37285609 	tbnz	w9, #5, b80 <_ZL13stbi__do_zlibP10stbi__zbufPciii+0xb80>
  c4:	12000d08 	and	w8, w8, #0xf
  c8:	7100211f 	cmp	w8, #0x8
  cc:	540057c1 	b.ne	bc4 <_ZL13stbi__do_zlibP10stbi__zbufPciii+0xbc4>
  d0:	aa1303fb 	mov	x27, x19
  d4:	b8010f7f 	str	wzr, [x27,#16]!
  d8:	aa1b03f5 	mov	x21, x27
  dc:	91202369 	add	x9, x27, #0x808
  e0:	f9000bec 	str	x12, [sp,#16]
  e4:	2a1f03e8 	mov	w8, wzr
  e8:	2a1f03ea 	mov	w10, wzr
  ec:	910823ee 	add	x14, sp, #0x208
  f0:	9100a3f4 	add	x20, sp, #0x28
  f4:	91009376 	add	x22, x27, #0x24
  f8:	f90013e9 	str	x9, [sp,#32]
  fc:	b8004ebf 	str	wzr, [x21,#4]!
 100:	910103f7 	add	x23, sp, #0x40
 104:	7100015f 	cmp	w10, #0x0
 108:	5400384d 	b.le	810 <_ZL13stbi__do_zlibP10stbi__zbufPciii+0x810>
 10c:	12000109 	and	w9, w8, #0x1
 110:	b9001fe9 	str	w9, [sp,#28]
 114:	53017d08 	lsr	w8, w8, #1
 118:	51000549 	sub	w9, w10, #0x1
 11c:	7100095f 	cmp	w10, #0x2
 120:	b90002a8 	str	w8, [x21]
 124:	b9000369 	str	w9, [x27]
 128:	5400018d 	b.le	158 <_ZL13stbi__do_zlibP10stbi__zbufPciii+0x158>
 12c:	1400002a 	b	1d4 <_ZL13stbi__do_zlibP10stbi__zbufPciii+0x1d4>
 130:	9100054b 	add	x11, x10, #0x1
 134:	f900026b 	str	x11, [x19]
 138:	3940014a 	ldrb	w10, [x10]
 13c:	1ac9214a 	lsl	w10, w10, w9
 140:	11002129 	add	w9, w9, #0x8
 144:	2a080148 	orr	w8, w10, w8
 148:	7100653f 	cmp	w9, #0x19
 14c:	b90002a8 	str	w8, [x21]
 150:	b9000369 	str	w9, [x27]
 154:	5400040a 	b.ge	1d4 <_ZL13stbi__do_zlibP10stbi__zbufPciii+0x1d4>
 158:	1ac9250a 	lsr	w10, w8, w9
 15c:	3500580a 	cbnz	w10, c5c <_ZL13stbi__do_zlibP10stbi__zbufPciii+0xc5c>
 160:	a9402e6a 	ldp	x10, x11, [x19]
 164:	eb0b015f 	cmp	x10, x11
 168:	54fffe43 	b.cc	130 <_ZL13stbi__do_zlibP10stbi__zbufPciii+0x130>
 16c:	2a1f03ea 	mov	w10, wzr
 170:	17fffff3 	b	13c <_ZL13stbi__do_zlibP10stbi__zbufPciii+0x13c>
 174:	9100056c 	add	x12, x11, #0x1
 178:	f900026c 	str	x12, [x19]
 17c:	3940016b 	ldrb	w11, [x11]
 180:	1aca216a 	lsl	w10, w11, w10
 184:	1100252b 	add	w11, w9, #0x9
 188:	2a080148 	orr	w8, w10, w8
 18c:	7100657f 	cmp	w11, #0x19
 190:	11002129 	add	w9, w9, #0x8
 194:	b90002a8 	str	w8, [x21]
 198:	b900036b 	str	w11, [x27]
 19c:	5400012a 	b.ge	1c0 <_ZL13stbi__do_zlibP10stbi__zbufPciii+0x1c0>
 1a0:	1100052a 	add	w10, w9, #0x1
 1a4:	1aca250b 	lsr	w11, w8, w10
 1a8:	350055ab 	cbnz	w11, c5c <_ZL13stbi__do_zlibP10stbi__zbufPciii+0xc5c>
 1ac:	a940326b 	ldp	x11, x12, [x19]
 1b0:	eb0c017f 	cmp	x11, x12
 1b4:	54fffe03 	b.cc	174 <_ZL13stbi__do_zlibP10stbi__zbufPciii+0x174>
 1b8:	2a1f03eb 	mov	w11, wzr
 1bc:	17fffff1 	b	180 <_ZL13stbi__do_zlibP10stbi__zbufPciii+0x180>
 1c0:	1200010a 	and	w10, w8, #0x1
 1c4:	53017d08 	lsr	w8, w8, #1
 1c8:	b9001fea 	str	w10, [sp,#28]
 1cc:	b90002a8 	str	w8, [x21]
 1d0:	b9000369 	str	w9, [x27]
 1d4:	1200050a 	and	w10, w8, #0x3
 1d8:	53027d08 	lsr	w8, w8, #2
 1dc:	51000929 	sub	w9, w9, #0x2
 1e0:	b90002a8 	str	w8, [x21]
 1e4:	b9000369 	str	w9, [x27]
 1e8:	340004ca 	cbz	w10, 280 <_ZL13stbi__do_zlibP10stbi__zbufPciii+0x280>
 1ec:	7100055f 	cmp	w10, #0x1
 1f0:	540002e0 	b.eq	24c <_ZL13stbi__do_zlibP10stbi__zbufPciii+0x24c>
 1f4:	71000d5f 	cmp	w10, #0x3
 1f8:	54005060 	b.eq	c04 <_ZL13stbi__do_zlibP10stbi__zbufPciii+0xc04>
 1fc:	7100113f 	cmp	w9, #0x4
 200:	5400018d 	b.le	230 <_ZL13stbi__do_zlibP10stbi__zbufPciii+0x230>
 204:	14000035 	b	2d8 <_ZL13stbi__do_zlibP10stbi__zbufPciii+0x2d8>
 208:	9100054b 	add	x11, x10, #0x1
 20c:	f900026b 	str	x11, [x19]
 210:	3940014a 	ldrb	w10, [x10]
 214:	1ac9214a 	lsl	w10, w10, w9
 218:	11002129 	add	w9, w9, #0x8
 21c:	2a080148 	orr	w8, w10, w8
 220:	7100653f 	cmp	w9, #0x19
 224:	b90002a8 	str	w8, [x21]
 228:	b9000369 	str	w9, [x27]
 22c:	5400056a 	b.ge	2d8 <_ZL13stbi__do_zlibP10stbi__zbufPciii+0x2d8>
 230:	1ac9250a 	lsr	w10, w8, w9
 234:	3500514a 	cbnz	w10, c5c <_ZL13stbi__do_zlibP10stbi__zbufPciii+0xc5c>
 238:	a9402e6a 	ldp	x10, x11, [x19]
 23c:	eb0b015f 	cmp	x10, x11
 240:	54fffe43 	b.cc	208 <_ZL13stbi__do_zlibP10stbi__zbufPciii+0x208>
 244:	2a1f03ea 	mov	w10, wzr
 248:	17fffff3 	b	214 <_ZL13stbi__do_zlibP10stbi__zbufPciii+0x214>
 24c:	90000001 	adrp	x1, 0 <_ZL13stbi__do_zlibP10stbi__zbufPciii>
 250:	52802402 	mov	w2, #0x120                 	// #288
 254:	aa1603e0 	mov	x0, x22
 258:	91000021 	add	x1, x1, #0x0
 25c:	94000000 	bl	0 <_ZL13stbi__do_zlibP10stbi__zbufPciii>
 260:	34004f20 	cbz	w0, c44 <_ZL13stbi__do_zlibP10stbi__zbufPciii+0xc44>
 264:	f94013e0 	ldr	x0, [sp,#32]
 268:	90000001 	adrp	x1, 0 <_ZL13stbi__do_zlibP10stbi__zbufPciii>
 26c:	52800402 	mov	w2, #0x20                  	// #32
 270:	91000021 	add	x1, x1, #0x0
 274:	94000000 	bl	0 <_ZL13stbi__do_zlibP10stbi__zbufPciii>
 278:	35002e80 	cbnz	w0, 848 <_ZL13stbi__do_zlibP10stbi__zbufPciii+0x848>
 27c:	14000272 	b	c44 <_ZL13stbi__do_zlibP10stbi__zbufPciii+0xc44>
 280:	7200092a 	ands	w10, w9, #0x7
 284:	54002180 	b.eq	6b4 <_ZL13stbi__do_zlibP10stbi__zbufPciii+0x6b4>
 288:	6b0a013f 	cmp	w9, w10
 28c:	5400018b 	b.lt	2bc <_ZL13stbi__do_zlibP10stbi__zbufPciii+0x2bc>
 290:	14000105 	b	6a4 <_ZL13stbi__do_zlibP10stbi__zbufPciii+0x6a4>
 294:	9100056c 	add	x12, x11, #0x1
 298:	f900026c 	str	x12, [x19]
 29c:	3940016b 	ldrb	w11, [x11]
 2a0:	1ac9216b 	lsl	w11, w11, w9
 2a4:	11002129 	add	w9, w9, #0x8
 2a8:	2a080168 	orr	w8, w11, w8
 2ac:	7100653f 	cmp	w9, #0x19
 2b0:	b90002a8 	str	w8, [x21]
 2b4:	b9000369 	str	w9, [x27]
 2b8:	54001f6a 	b.ge	6a4 <_ZL13stbi__do_zlibP10stbi__zbufPciii+0x6a4>
 2bc:	1ac9250b 	lsr	w11, w8, w9
 2c0:	35004ceb 	cbnz	w11, c5c <_ZL13stbi__do_zlibP10stbi__zbufPciii+0xc5c>
 2c4:	a940326b 	ldp	x11, x12, [x19]
 2c8:	eb0c017f 	cmp	x11, x12
 2cc:	54fffe43 	b.cc	294 <_ZL13stbi__do_zlibP10stbi__zbufPciii+0x294>
 2d0:	2a1f03eb 	mov	w11, wzr
 2d4:	17fffff3 	b	2a0 <_ZL13stbi__do_zlibP10stbi__zbufPciii+0x2a0>
 2d8:	51001529 	sub	w9, w9, #0x5
 2dc:	53057d0a 	lsr	w10, w8, #5
 2e0:	7100113f 	cmp	w9, #0x4
 2e4:	b90002aa 	str	w10, [x21]
 2e8:	b9000369 	str	w9, [x27]
 2ec:	5400018d 	b.le	31c <_ZL13stbi__do_zlibP10stbi__zbufPciii+0x31c>
 2f0:	14000012 	b	338 <_ZL13stbi__do_zlibP10stbi__zbufPciii+0x338>
 2f4:	9100056c 	add	x12, x11, #0x1
 2f8:	f900026c 	str	x12, [x19]
 2fc:	3940016b 	ldrb	w11, [x11]
 300:	1ac9216b 	lsl	w11, w11, w9
 304:	11002129 	add	w9, w9, #0x8
 308:	2a0a016a 	orr	w10, w11, w10
 30c:	7100653f 	cmp	w9, #0x19
 310:	b90002aa 	str	w10, [x21]
 314:	b9000369 	str	w9, [x27]
 318:	5400010a 	b.ge	338 <_ZL13stbi__do_zlibP10stbi__zbufPciii+0x338>
 31c:	1ac9254b 	lsr	w11, w10, w9
 320:	350049eb 	cbnz	w11, c5c <_ZL13stbi__do_zlibP10stbi__zbufPciii+0xc5c>
 324:	a940326b 	ldp	x11, x12, [x19]
 328:	eb0c017f 	cmp	x11, x12
 32c:	54fffe43 	b.cc	2f4 <_ZL13stbi__do_zlibP10stbi__zbufPciii+0x2f4>
 330:	2a1f03eb 	mov	w11, wzr
 334:	17fffff3 	b	300 <_ZL13stbi__do_zlibP10stbi__zbufPciii+0x300>
 338:	5100152c 	sub	w12, w9, #0x5
 33c:	53057d4b 	lsr	w11, w10, #5
 340:	7100119f 	cmp	w12, #0x4
 344:	b90002ab 	str	w11, [x21]
 348:	b900036c 	str	w12, [x27]
 34c:	5400018b 	b.lt	37c <_ZL13stbi__do_zlibP10stbi__zbufPciii+0x37c>
 350:	14000012 	b	398 <_ZL13stbi__do_zlibP10stbi__zbufPciii+0x398>
 354:	9100052d 	add	x13, x9, #0x1
 358:	f900026d 	str	x13, [x19]
 35c:	39400129 	ldrb	w9, [x9]
 360:	1acc2129 	lsl	w9, w9, w12
 364:	1100218c 	add	w12, w12, #0x8
 368:	2a0b012b 	orr	w11, w9, w11
 36c:	7100659f 	cmp	w12, #0x19
 370:	b90002ab 	str	w11, [x21]
 374:	b900036c 	str	w12, [x27]
 378:	5400010a 	b.ge	398 <_ZL13stbi__do_zlibP10stbi__zbufPciii+0x398>
 37c:	1acc2569 	lsr	w9, w11, w12
 380:	350046e9 	cbnz	w9, c5c <_ZL13stbi__do_zlibP10stbi__zbufPciii+0xc5c>
 384:	a9403669 	ldp	x9, x13, [x19]
 388:	eb0d013f 	cmp	x9, x13
 38c:	54fffe43 	b.cc	354 <_ZL13stbi__do_zlibP10stbi__zbufPciii+0x354>
 390:	2a1f03e9 	mov	w9, wzr
 394:	17fffff3 	b	360 <_ZL13stbi__do_zlibP10stbi__zbufPciii+0x360>
 398:	1200110d 	and	w13, w8, #0x1f
 39c:	1200114a 	and	w10, w10, #0x1f
 3a0:	12000d6e 	and	w14, w11, #0xf
 3a4:	110405b9 	add	w25, w13, #0x101
 3a8:	1100055c 	add	w28, w10, #0x1
 3ac:	110011ca 	add	w10, w14, #0x4
 3b0:	9000000e 	adrp	x14, 0 <_ZL13stbi__do_zlibP10stbi__zbufPciii>
 3b4:	aa1f03e9 	mov	x9, xzr
 3b8:	53047d6b 	lsr	w11, w11, #4
 3bc:	51001188 	sub	w8, w12, #0x4
 3c0:	0b190398 	add	w24, w28, w25
 3c4:	910001ce 	add	x14, x14, #0x0
 3c8:	b90002ab 	str	w11, [x21]
 3cc:	b9000368 	str	w8, [x27]
 3d0:	b80373ff 	stur	wzr, [sp,#55]
 3d4:	a902ffff 	stp	xzr, xzr, [sp,#40]
 3d8:	7100091f 	cmp	w8, #0x2
 3dc:	5400030d 	b.le	43c <_ZL13stbi__do_zlibP10stbi__zbufPciii+0x43c>
 3e0:	386969cd 	ldrb	w13, [x14,x9]
 3e4:	91000529 	add	x9, x9, #0x1
 3e8:	1200096c 	and	w12, w11, #0x7
 3ec:	53037d6b 	lsr	w11, w11, #3
 3f0:	51000d08 	sub	w8, w8, #0x3
 3f4:	eb0a013f 	cmp	x9, x10
 3f8:	b90002ab 	str	w11, [x21]
 3fc:	b9000368 	str	w8, [x27]
 400:	382d6a8c 	strb	w12, [x20,x13]
 404:	540002a0 	b.eq	458 <_ZL13stbi__do_zlibP10stbi__zbufPciii+0x458>
 408:	7100091f 	cmp	w8, #0x2
 40c:	5400018d 	b.le	43c <_ZL13stbi__do_zlibP10stbi__zbufPciii+0x43c>
 410:	17fffff4 	b	3e0 <_ZL13stbi__do_zlibP10stbi__zbufPciii+0x3e0>
 414:	9100058d 	add	x13, x12, #0x1
 418:	f900026d 	str	x13, [x19]
 41c:	3940018c 	ldrb	w12, [x12]
 420:	1ac8218c 	lsl	w12, w12, w8
 424:	11002108 	add	w8, w8, #0x8
 428:	2a0b018b 	orr	w11, w12, w11
 42c:	7100651f 	cmp	w8, #0x19
 430:	b90002ab 	str	w11, [x21]
 434:	b9000368 	str	w8, [x27]
 438:	54fffd4a 	b.ge	3e0 <_ZL13stbi__do_zlibP10stbi__zbufPciii+0x3e0>
 43c:	1ac8256c 	lsr	w12, w11, w8
 440:	350040ec 	cbnz	w12, c5c <_ZL13stbi__do_zlibP10stbi__zbufPciii+0xc5c>
 444:	a940366c 	ldp	x12, x13, [x19]
 448:	eb0d019f 	cmp	x12, x13
 44c:	54fffe43 	b.cc	414 <_ZL13stbi__do_zlibP10stbi__zbufPciii+0x414>
 450:	2a1f03ec 	mov	w12, wzr
 454:	17fffff3 	b	420 <_ZL13stbi__do_zlibP10stbi__zbufPciii+0x420>
 458:	910823e0 	add	x0, sp, #0x208
 45c:	9100a3e1 	add	x1, sp, #0x28
 460:	52800262 	mov	w2, #0x13                  	// #19
 464:	94000000 	bl	0 <_ZL13stbi__do_zlibP10stbi__zbufPciii>
 468:	34001ec0 	cbz	w0, 840 <_ZL13stbi__do_zlibP10stbi__zbufPciii+0x840>
 46c:	f90007f9 	str	x25, [sp,#8]
 470:	2a1f03f9 	mov	w25, wzr
 474:	14000006 	b	48c <_ZL13stbi__do_zlibP10stbi__zbufPciii+0x48c>
 478:	11000729 	add	w9, w25, #0x1
 47c:	3839cae8 	strb	w8, [x23,w25,sxtw]
 480:	2a0903f9 	mov	w25, w9
 484:	6b19031f 	cmp	w24, w25
 488:	54000f0d 	b.le	668 <_ZL13stbi__do_zlibP10stbi__zbufPciii+0x668>
 48c:	910823e1 	add	x1, sp, #0x208
 490:	aa1303e0 	mov	x0, x19
 494:	94000000 	bl	0 <_ZL13stbi__do_zlibP10stbi__zbufPciii>
 498:	71004c1f 	cmp	w0, #0x13
 49c:	54001c42 	b.cs	824 <_ZL13stbi__do_zlibP10stbi__zbufPciii+0x824>
 4a0:	2a0003e8 	mov	w8, w0
 4a4:	71003c1f 	cmp	w0, #0xf
 4a8:	54fffe8d 	b.le	478 <_ZL13stbi__do_zlibP10stbi__zbufPciii+0x478>
 4ac:	7100491f 	cmp	w8, #0x12
 4b0:	8b39c2e0 	add	x0, x23, w25, sxtw
 4b4:	54000620 	b.eq	578 <_ZL13stbi__do_zlibP10stbi__zbufPciii+0x578>
 4b8:	7100451f 	cmp	w8, #0x11
 4bc:	54000320 	b.eq	520 <_ZL13stbi__do_zlibP10stbi__zbufPciii+0x520>
 4c0:	7100411f 	cmp	w8, #0x10
 4c4:	54003dc1 	b.ne	c7c <_ZL13stbi__do_zlibP10stbi__zbufPciii+0xc7c>
 4c8:	b9400369 	ldr	w9, [x27]
 4cc:	b94002a8 	ldr	w8, [x21]
 4d0:	7100053f 	cmp	w9, #0x1
 4d4:	5400018d 	b.le	504 <_ZL13stbi__do_zlibP10stbi__zbufPciii+0x504>
 4d8:	1400003e 	b	5d0 <_ZL13stbi__do_zlibP10stbi__zbufPciii+0x5d0>
 4dc:	9100054b 	add	x11, x10, #0x1
 4e0:	f900026b 	str	x11, [x19]
 4e4:	3940014a 	ldrb	w10, [x10]
 4e8:	1ac9214a 	lsl	w10, w10, w9
 4ec:	11002129 	add	w9, w9, #0x8
 4f0:	2a080148 	orr	w8, w10, w8
 4f4:	7100653f 	cmp	w9, #0x19
 4f8:	b90002a8 	str	w8, [x21]
 4fc:	b9000369 	str	w9, [x27]
 500:	5400068a 	b.ge	5d0 <_ZL13stbi__do_zlibP10stbi__zbufPciii+0x5d0>
 504:	1ac9250a 	lsr	w10, w8, w9
 508:	35003aaa 	cbnz	w10, c5c <_ZL13stbi__do_zlibP10stbi__zbufPciii+0xc5c>
 50c:	a9402e6a 	ldp	x10, x11, [x19]
 510:	eb0b015f 	cmp	x10, x11
 514:	54fffe43 	b.cc	4dc <_ZL13stbi__do_zlibP10stbi__zbufPciii+0x4dc>
 518:	2a1f03ea 	mov	w10, wzr
 51c:	17fffff3 	b	4e8 <_ZL13stbi__do_zlibP10stbi__zbufPciii+0x4e8>
 520:	b9400368 	ldr	w8, [x27]
 524:	b94002a9 	ldr	w9, [x21]
 528:	7100091f 	cmp	w8, #0x2
 52c:	5400018d 	b.le	55c <_ZL13stbi__do_zlibP10stbi__zbufPciii+0x55c>
 530:	14000034 	b	600 <_ZL13stbi__do_zlibP10stbi__zbufPciii+0x600>
 534:	9100054b 	add	x11, x10, #0x1
 538:	f900026b 	str	x11, [x19]
 53c:	3940014a 	ldrb	w10, [x10]
 540:	1ac8214a 	lsl	w10, w10, w8
 544:	11002108 	add	w8, w8, #0x8
 548:	2a090149 	orr	w9, w10, w9
 54c:	7100651f 	cmp	w8, #0x19
 550:	b90002a9 	str	w9, [x21]
 554:	b9000368 	str	w8, [x27]
 558:	5400054a 	b.ge	600 <_ZL13stbi__do_zlibP10stbi__zbufPciii+0x600>
 55c:	1ac8252a 	lsr	w10, w9, w8
 560:	350037ea 	cbnz	w10, c5c <_ZL13stbi__do_zlibP10stbi__zbufPciii+0xc5c>
 564:	a9402e6a 	ldp	x10, x11, [x19]
 568:	eb0b015f 	cmp	x10, x11
 56c:	54fffe43 	b.cc	534 <_ZL13stbi__do_zlibP10stbi__zbufPciii+0x534>
 570:	2a1f03ea 	mov	w10, wzr
 574:	17fffff3 	b	540 <_ZL13stbi__do_zlibP10stbi__zbufPciii+0x540>
 578:	b9400368 	ldr	w8, [x27]
 57c:	b94002a9 	ldr	w9, [x21]
 580:	7100191f 	cmp	w8, #0x6
 584:	5400018d 	b.le	5b4 <_ZL13stbi__do_zlibP10stbi__zbufPciii+0x5b4>
 588:	14000029 	b	62c <_ZL13stbi__do_zlibP10stbi__zbufPciii+0x62c>
 58c:	9100054b 	add	x11, x10, #0x1
 590:	f900026b 	str	x11, [x19]
 594:	3940014a 	ldrb	w10, [x10]
 598:	1ac8214a 	lsl	w10, w10, w8
 59c:	11002108 	add	w8, w8, #0x8
 5a0:	2a090149 	orr	w9, w10, w9
 5a4:	7100651f 	cmp	w8, #0x19
 5a8:	b90002a9 	str	w9, [x21]
 5ac:	b9000368 	str	w8, [x27]
 5b0:	540003ea 	b.ge	62c <_ZL13stbi__do_zlibP10stbi__zbufPciii+0x62c>
 5b4:	1ac8252a 	lsr	w10, w9, w8
 5b8:	3500352a 	cbnz	w10, c5c <_ZL13stbi__do_zlibP10stbi__zbufPciii+0xc5c>
 5bc:	a9402e6a 	ldp	x10, x11, [x19]
 5c0:	eb0b015f 	cmp	x10, x11
 5c4:	54fffe43 	b.cc	58c <_ZL13stbi__do_zlibP10stbi__zbufPciii+0x58c>
 5c8:	2a1f03ea 	mov	w10, wzr
 5cc:	17fffff3 	b	598 <_ZL13stbi__do_zlibP10stbi__zbufPciii+0x598>
 5d0:	53027d0a 	lsr	w10, w8, #2
 5d4:	51000929 	sub	w9, w9, #0x2
 5d8:	b90002aa 	str	w10, [x21]
 5dc:	b9000369 	str	w9, [x27]
 5e0:	34001239 	cbz	w25, 824 <_ZL13stbi__do_zlibP10stbi__zbufPciii+0x824>
 5e4:	385ff001 	ldurb	w1, [x0,#-1]
 5e8:	12000508 	and	w8, w8, #0x3
 5ec:	11000d1a 	add	w26, w8, #0x3
 5f0:	4b190308 	sub	w8, w24, w25
 5f4:	6b1a011f 	cmp	w8, w26
 5f8:	540002ea 	b.ge	654 <_ZL13stbi__do_zlibP10stbi__zbufPciii+0x654>
 5fc:	1400008a 	b	824 <_ZL13stbi__do_zlibP10stbi__zbufPciii+0x824>
 600:	1200092a 	and	w10, w9, #0x7
 604:	53037d29 	lsr	w9, w9, #3
 608:	51000d08 	sub	w8, w8, #0x3
 60c:	2a1f03e1 	mov	w1, wzr
 610:	b90002a9 	str	w9, [x21]
 614:	b9000368 	str	w8, [x27]
 618:	11000d5a 	add	w26, w10, #0x3
 61c:	4b190308 	sub	w8, w24, w25
 620:	6b1a011f 	cmp	w8, w26
 624:	5400018a 	b.ge	654 <_ZL13stbi__do_zlibP10stbi__zbufPciii+0x654>
 628:	1400007f 	b	824 <_ZL13stbi__do_zlibP10stbi__zbufPciii+0x824>
 62c:	1200192a 	and	w10, w9, #0x7f
 630:	2a1f03e1 	mov	w1, wzr
 634:	53077d29 	lsr	w9, w9, #7
 638:	51001d08 	sub	w8, w8, #0x7
 63c:	11002d5a 	add	w26, w10, #0xb
 640:	b90002a9 	str	w9, [x21]
 644:	b9000368 	str	w8, [x27]
 648:	4b190308 	sub	w8, w24, w25
 64c:	6b1a011f 	cmp	w8, w26
 650:	54000eab 	b.lt	824 <_ZL13stbi__do_zlibP10stbi__zbufPciii+0x824>
 654:	aa1a03e2 	mov	x2, x26
 658:	94000000 	bl	0 <memset>
 65c:	0b190359 	add	w25, w26, w25
 660:	6b19031f 	cmp	w24, w25
 664:	54fff14c 	b.gt	48c <_ZL13stbi__do_zlibP10stbi__zbufPciii+0x48c>
 668:	54000de1 	b.ne	824 <_ZL13stbi__do_zlibP10stbi__zbufPciii+0x824>
 66c:	f94007f8 	ldr	x24, [sp,#8]
 670:	910103e1 	add	x1, sp, #0x40
 674:	aa1603e0 	mov	x0, x22
 678:	2a1803e2 	mov	w2, w24
 67c:	94000000 	bl	0 <_ZL13stbi__do_zlibP10stbi__zbufPciii>
 680:	34000e00 	cbz	w0, 840 <_ZL13stbi__do_zlibP10stbi__zbufPciii+0x840>
 684:	f94013e0 	ldr	x0, [sp,#32]
 688:	8b1802e1 	add	x1, x23, x24
 68c:	2a1c03e2 	mov	w2, w28
 690:	94000000 	bl	0 <_ZL13stbi__do_zlibP10stbi__zbufPciii>
 694:	7100001f 	cmp	w0, #0x0
 698:	1a9f07e8 	cset	w8, ne
 69c:	35000d68 	cbnz	w8, 848 <_ZL13stbi__do_zlibP10stbi__zbufPciii+0x848>
 6a0:	14000159 	b	c04 <_ZL13stbi__do_zlibP10stbi__zbufPciii+0xc04>
 6a4:	1aca2508 	lsr	w8, w8, w10
 6a8:	4b0a0129 	sub	w9, w9, w10
 6ac:	b90002a8 	str	w8, [x21]
 6b0:	b9000369 	str	w9, [x27]
 6b4:	7100052b 	subs	w11, w9, #0x1
 6b8:	5400248b 	b.lt	b48 <_ZL13stbi__do_zlibP10stbi__zbufPciii+0xb48>
 6bc:	53037d6a 	lsr	w10, w11, #3
 6c0:	1100054a 	add	w10, w10, #0x1
 6c4:	910823ec 	add	x12, sp, #0x208
 6c8:	aa0a03ed 	mov	x13, x10
 6cc:	38001588 	strb	w8, [x12],#1
 6d0:	f10005ad 	subs	x13, x13, #0x1
 6d4:	53087d08 	lsr	w8, w8, #8
 6d8:	54ffffa1 	b.ne	6cc <_ZL13stbi__do_zlibP10stbi__zbufPciii+0x6cc>
 6dc:	121d716b 	and	w11, w11, #0xfffffff8
 6e0:	4b0b0129 	sub	w9, w9, w11
 6e4:	51002129 	sub	w9, w9, #0x8
 6e8:	b90002a8 	str	w8, [x21]
 6ec:	b9000369 	str	w9, [x27]
 6f0:	35002d69 	cbnz	w9, c9c <_ZL13stbi__do_zlibP10stbi__zbufPciii+0xc9c>
 6f4:	71000d5f 	cmp	w10, #0x3
 6f8:	54000228 	b.hi	73c <_ZL13stbi__do_zlibP10stbi__zbufPciii+0x73c>
 6fc:	a9402269 	ldp	x9, x8, [x19]
 700:	eb08013f 	cmp	x9, x8
 704:	54000182 	b.cs	734 <_ZL13stbi__do_zlibP10stbi__zbufPciii+0x734>
 708:	9100052c 	add	x12, x9, #0x1
 70c:	f900026c 	str	x12, [x19]
 710:	3940012b 	ldrb	w11, [x9]
 714:	aa0c03e9 	mov	x9, x12
 718:	9100054c 	add	x12, x10, #0x1
 71c:	f100119f 	cmp	x12, #0x4
 720:	382a69cb 	strb	w11, [x14,x10]
 724:	aa0c03ea 	mov	x10, x12
 728:	540000a0 	b.eq	73c <_ZL13stbi__do_zlibP10stbi__zbufPciii+0x73c>
 72c:	eb08013f 	cmp	x9, x8
 730:	54fffec3 	b.cc	708 <_ZL13stbi__do_zlibP10stbi__zbufPciii+0x708>
 734:	2a1f03eb 	mov	w11, wzr
 738:	17fffff8 	b	718 <_ZL13stbi__do_zlibP10stbi__zbufPciii+0x718>
 73c:	394827e8 	ldrb	w8, [sp,#521]
 740:	394823f9 	ldrb	w25, [sp,#520]
 744:	39482fe9 	ldrb	w9, [sp,#523]
 748:	39482bea 	ldrb	w10, [sp,#522]
 74c:	b3781d19 	bfi	x25, x8, #8, #8
 750:	52003f28 	eor	w8, w25, #0xffff
 754:	33181d2a 	bfi	w10, w9, #8, #8
 758:	6b08015f 	cmp	w10, w8
 75c:	54002581 	b.ne	c0c <_ZL13stbi__do_zlibP10stbi__zbufPciii+0xc0c>
 760:	a9402261 	ldp	x1, x8, [x19]
 764:	8b190029 	add	x9, x1, x25
 768:	eb08013f 	cmp	x9, x8
 76c:	54002568 	b.hi	c18 <_ZL13stbi__do_zlibP10stbi__zbufPciii+0xc18>
 770:	f9401668 	ldr	x8, [x19,#40]
 774:	8b190309 	add	x9, x24, x25
 778:	eb08013f 	cmp	x9, x8
 77c:	540002a9 	b.ls	7d0 <_ZL13stbi__do_zlibP10stbi__zbufPciii+0x7d0>
 780:	b9403269 	ldr	w9, [x19,#48]
 784:	34002509 	cbz	w9, c24 <_ZL13stbi__do_zlibP10stbi__zbufPciii+0xc24>
 788:	f9401260 	ldr	x0, [x19,#32]
 78c:	cb000317 	sub	x23, x24, x0
 790:	4b00010a 	sub	w10, w8, w0
 794:	0b170328 	add	w8, w25, w23
 798:	2a0a03e9 	mov	w9, w10
 79c:	6b0a011f 	cmp	w8, w10
 7a0:	531f794a 	lsl	w10, w10, #1
 7a4:	54ffffac 	b.gt	798 <_ZL13stbi__do_zlibP10stbi__zbufPciii+0x798>
 7a8:	93407d3a 	sxtw	x26, w9
 7ac:	aa1a03e1 	mov	x1, x26
 7b0:	94000000 	bl	0 <realloc>
 7b4:	b40023e0 	cbz	x0, c30 <_ZL13stbi__do_zlibP10stbi__zbufPciii+0xc30>
 7b8:	f9400261 	ldr	x1, [x19]
 7bc:	8b37c018 	add	x24, x0, w23, sxtw
 7c0:	8b1a0008 	add	x8, x0, x26
 7c4:	910103f7 	add	x23, sp, #0x40
 7c8:	a9018278 	stp	x24, x0, [x19,#24]
 7cc:	f9001668 	str	x8, [x19,#40]
 7d0:	aa1803e0 	mov	x0, x24
 7d4:	aa1903e2 	mov	x2, x25
 7d8:	94000000 	bl	0 <memcpy>
 7dc:	f9400268 	ldr	x8, [x19]
 7e0:	f9400e69 	ldr	x9, [x19,#24]
 7e4:	8b190108 	add	x8, x8, x25
 7e8:	8b190138 	add	x24, x9, x25
 7ec:	f9000268 	str	x8, [x19]
 7f0:	f9000e78 	str	x24, [x19,#24]
 7f4:	b9401fe8 	ldr	w8, [sp,#28]
 7f8:	910823ee 	add	x14, sp, #0x208
 7fc:	35001b68 	cbnz	w8, b68 <_ZL13stbi__do_zlibP10stbi__zbufPciii+0xb68>
 800:	b940036a 	ldr	w10, [x27]
 804:	b94002a8 	ldr	w8, [x21]
 808:	7100015f 	cmp	w10, #0x0
 80c:	54ffc80c 	b.gt	10c <_ZL13stbi__do_zlibP10stbi__zbufPciii+0x10c>
 810:	51000549 	sub	w9, w10, #0x1
 814:	1100052a 	add	w10, w9, #0x1
 818:	1aca250b 	lsr	w11, w8, w10
 81c:	34ffcc8b 	cbz	w11, 1ac <_ZL13stbi__do_zlibP10stbi__zbufPciii+0x1ac>
 820:	1400010f 	b	c5c <_ZL13stbi__do_zlibP10stbi__zbufPciii+0xc5c>
 824:	9000000a 	adrp	x10, 0 <_ZL13stbi__do_zlibP10stbi__zbufPciii>
 828:	90000009 	adrp	x9, 0 <_ZL13stbi__do_zlibP10stbi__zbufPciii>
 82c:	9100014a 	add	x10, x10, #0x0
 830:	2a1f03e8 	mov	w8, wzr
 834:	f900012a 	str	x10, [x9]
 838:	35000088 	cbnz	w8, 848 <_ZL13stbi__do_zlibP10stbi__zbufPciii+0x848>
 83c:	140000f2 	b	c04 <_ZL13stbi__do_zlibP10stbi__zbufPciii+0xc04>
 840:	2a1f03e8 	mov	w8, wzr
 844:	34001e08 	cbz	w8, c04 <_ZL13stbi__do_zlibP10stbi__zbufPciii+0xc04>
 848:	f9400e78 	ldr	x24, [x19,#24]
 84c:	14000006 	b	864 <_ZL13stbi__do_zlibP10stbi__zbufPciii+0x864>
 850:	8b37c018 	add	x24, x0, w23, sxtw
 854:	8b1a0008 	add	x8, x0, x26
 858:	a9018278 	stp	x24, x0, [x19,#24]
 85c:	f9001668 	str	x8, [x19,#40]
 860:	38001719 	strb	w25, [x24],#1
 864:	aa1303e0 	mov	x0, x19
 868:	aa1603e1 	mov	x1, x22
 86c:	94000000 	bl	0 <_ZL13stbi__do_zlibP10stbi__zbufPciii>
 870:	2a0003f9 	mov	w25, w0
 874:	7103fc1f 	cmp	w0, #0xff
 878:	5400028c 	b.gt	8c8 <_ZL13stbi__do_zlibP10stbi__zbufPciii+0x8c8>
 87c:	37f817b9 	tbnz	w25, #31, b70 <_ZL13stbi__do_zlibP10stbi__zbufPciii+0xb70>
 880:	f9401668 	ldr	x8, [x19,#40]
 884:	eb08031f 	cmp	x24, x8
 888:	54fffec3 	b.cc	860 <_ZL13stbi__do_zlibP10stbi__zbufPciii+0x860>
 88c:	b9403269 	ldr	w9, [x19,#48]
 890:	f9000e78 	str	x24, [x19,#24]
 894:	340017c9 	cbz	w9, b8c <_ZL13stbi__do_zlibP10stbi__zbufPciii+0xb8c>
 898:	f9401260 	ldr	x0, [x19,#32]
 89c:	cb000317 	sub	x23, x24, x0
 8a0:	4b000109 	sub	w9, w8, w0
 8a4:	2a0903e8 	mov	w8, w9
 8a8:	6b17013f 	cmp	w9, w23
 8ac:	531f7929 	lsl	w9, w9, #1
 8b0:	54ffffad 	b.le	8a4 <_ZL13stbi__do_zlibP10stbi__zbufPciii+0x8a4>
 8b4:	93407d1a 	sxtw	x26, w8
 8b8:	aa1a03e1 	mov	x1, x26
 8bc:	94000000 	bl	0 <realloc>
 8c0:	b5fffc80 	cbnz	x0, 850 <_ZL13stbi__do_zlibP10stbi__zbufPciii+0x850>
 8c4:	140000bc 	b	bb4 <_ZL13stbi__do_zlibP10stbi__zbufPciii+0xbb4>
 8c8:	7104033f 	cmp	w25, #0x100
 8cc:	54001440 	b.eq	b54 <_ZL13stbi__do_zlibP10stbi__zbufPciii+0xb54>
 8d0:	93407f29 	sxtw	x9, w25
 8d4:	9000000a 	adrp	x10, 0 <_ZL13stbi__do_zlibP10stbi__zbufPciii>
 8d8:	d1040528 	sub	x8, x9, #0x101
 8dc:	9100014a 	add	x10, x10, #0x0
 8e0:	b868795a 	ldr	w26, [x10,x8,lsl #2]
 8e4:	d1042529 	sub	x9, x9, #0x109
 8e8:	f1004d3f 	cmp	x9, #0x13
 8ec:	54000448 	b.hi	974 <_ZL13stbi__do_zlibP10stbi__zbufPciii+0x974>
 8f0:	90000009 	adrp	x9, 0 <_ZL13stbi__do_zlibP10stbi__zbufPciii>
 8f4:	91000129 	add	x9, x9, #0x0
 8f8:	b8687928 	ldr	w8, [x9,x8,lsl #2]
 8fc:	b9400369 	ldr	w9, [x27]
 900:	b94002aa 	ldr	w10, [x21]
 904:	6b08013f 	cmp	w9, w8
 908:	5400018b 	b.lt	938 <_ZL13stbi__do_zlibP10stbi__zbufPciii+0x938>
 90c:	14000012 	b	954 <_ZL13stbi__do_zlibP10stbi__zbufPciii+0x954>
 910:	9100056c 	add	x12, x11, #0x1
 914:	f900026c 	str	x12, [x19]
 918:	3940016b 	ldrb	w11, [x11]
 91c:	1ac9216b 	lsl	w11, w11, w9
 920:	11002129 	add	w9, w9, #0x8
 924:	2a0a016a 	orr	w10, w11, w10
 928:	7100653f 	cmp	w9, #0x19
 92c:	b90002aa 	str	w10, [x21]
 930:	b9000369 	str	w9, [x27]
 934:	5400010a 	b.ge	954 <_ZL13stbi__do_zlibP10stbi__zbufPciii+0x954>
 938:	1ac9254b 	lsr	w11, w10, w9
 93c:	3500190b 	cbnz	w11, c5c <_ZL13stbi__do_zlibP10stbi__zbufPciii+0xc5c>
 940:	a940326b 	ldp	x11, x12, [x19]
 944:	eb0c017f 	cmp	x11, x12
 948:	54fffe43 	b.cc	910 <_ZL13stbi__do_zlibP10stbi__zbufPciii+0x910>
 94c:	2a1f03eb 	mov	w11, wzr
 950:	17fffff3 	b	91c <_ZL13stbi__do_zlibP10stbi__zbufPciii+0x91c>
 954:	1280000b 	mov	w11, #0xffffffff            	// #-1
 958:	1ac8216b 	lsl	w11, w11, w8
 95c:	1ac8254c 	lsr	w12, w10, w8
 960:	4b080128 	sub	w8, w9, w8
 964:	0a2b0149 	bic	w9, w10, w11
 968:	0b1a013a 	add	w26, w9, w26
 96c:	b90002ac 	str	w12, [x21]
 970:	b9000368 	str	w8, [x27]
 974:	f94013e1 	ldr	x1, [sp,#32]
 978:	aa1303e0 	mov	x0, x19
 97c:	94000000 	bl	0 <_ZL13stbi__do_zlibP10stbi__zbufPciii>
 980:	37f80f80 	tbnz	w0, #31, b70 <_ZL13stbi__do_zlibP10stbi__zbufPciii+0xb70>
 984:	90000008 	adrp	x8, 0 <_ZL13stbi__do_zlibP10stbi__zbufPciii>
 988:	91000108 	add	x8, x8, #0x0
 98c:	b860d908 	ldr	w8, [x8,w0,sxtw #2]
 990:	93407c09 	sxtw	x9, w0
 994:	d100112a 	sub	x10, x9, #0x4
 998:	f100655f 	cmp	x10, #0x19
 99c:	54000448 	b.hi	a24 <_ZL13stbi__do_zlibP10stbi__zbufPciii+0xa24>
 9a0:	9000000a 	adrp	x10, 0 <_ZL13stbi__do_zlibP10stbi__zbufPciii>
 9a4:	9100014a 	add	x10, x10, #0x0
 9a8:	b8697949 	ldr	w9, [x10,x9,lsl #2]
 9ac:	b940036a 	ldr	w10, [x27]
 9b0:	b94002ab 	ldr	w11, [x21]
 9b4:	6b09015f 	cmp	w10, w9
 9b8:	5400018b 	b.lt	9e8 <_ZL13stbi__do_zlibP10stbi__zbufPciii+0x9e8>
 9bc:	14000012 	b	a04 <_ZL13stbi__do_zlibP10stbi__zbufPciii+0xa04>
 9c0:	9100058d 	add	x13, x12, #0x1
 9c4:	f900026d 	str	x13, [x19]
 9c8:	3940018c 	ldrb	w12, [x12]
 9cc:	1aca218c 	lsl	w12, w12, w10
 9d0:	1100214a 	add	w10, w10, #0x8
 9d4:	2a0b018b 	orr	w11, w12, w11
 9d8:	7100655f 	cmp	w10, #0x19
 9dc:	b90002ab 	str	w11, [x21]
 9e0:	b900036a 	str	w10, [x27]
 9e4:	5400010a 	b.ge	a04 <_ZL13stbi__do_zlibP10stbi__zbufPciii+0xa04>
 9e8:	1aca256c 	lsr	w12, w11, w10
 9ec:	3500138c 	cbnz	w12, c5c <_ZL13stbi__do_zlibP10stbi__zbufPciii+0xc5c>
 9f0:	a940366c 	ldp	x12, x13, [x19]
 9f4:	eb0d019f 	cmp	x12, x13
 9f8:	54fffe43 	b.cc	9c0 <_ZL13stbi__do_zlibP10stbi__zbufPciii+0x9c0>
 9fc:	2a1f03ec 	mov	w12, wzr
 a00:	17fffff3 	b	9cc <_ZL13stbi__do_zlibP10stbi__zbufPciii+0x9cc>
 a04:	1280000c 	mov	w12, #0xffffffff            	// #-1
 a08:	1ac9218c 	lsl	w12, w12, w9
 a0c:	1ac9256d 	lsr	w13, w11, w9
 a10:	4b090149 	sub	w9, w10, w9
 a14:	0a2c016a 	bic	w10, w11, w12
 a18:	0b080148 	add	w8, w10, w8
 a1c:	b90002ad 	str	w13, [x21]
 a20:	b9000369 	str	w9, [x27]
 a24:	f9401260 	ldr	x0, [x19,#32]
 a28:	93407d17 	sxtw	x23, w8
 a2c:	cb00031c 	sub	x28, x24, x0
 a30:	eb17039f 	cmp	x28, x23
 a34:	54000b4b 	b.lt	b9c <_ZL13stbi__do_zlibP10stbi__zbufPciii+0xb9c>
 a38:	f9401668 	ldr	x8, [x19,#40]
 a3c:	8b3ac309 	add	x9, x24, w26, sxtw
 a40:	eb08013f 	cmp	x9, x8
 a44:	54000249 	b.ls	a8c <_ZL13stbi__do_zlibP10stbi__zbufPciii+0xa8c>
 a48:	b9403269 	ldr	w9, [x19,#48]
 a4c:	f9000e78 	str	x24, [x19,#24]
 a50:	340009e9 	cbz	w9, b8c <_ZL13stbi__do_zlibP10stbi__zbufPciii+0xb8c>
 a54:	4b00010a 	sub	w10, w8, w0
 a58:	0b1c0348 	add	w8, w26, w28
 a5c:	2a0a03e9 	mov	w9, w10
 a60:	6b0a011f 	cmp	w8, w10
 a64:	531f794a 	lsl	w10, w10, #1
 a68:	54ffffac 	b.gt	a5c <_ZL13stbi__do_zlibP10stbi__zbufPciii+0xa5c>
 a6c:	93407d39 	sxtw	x25, w9
 a70:	aa1903e1 	mov	x1, x25
 a74:	94000000 	bl	0 <realloc>
 a78:	b40009e0 	cbz	x0, bb4 <_ZL13stbi__do_zlibP10stbi__zbufPciii+0xbb4>
 a7c:	8b3cc018 	add	x24, x0, w28, sxtw
 a80:	8b190008 	add	x8, x0, x25
 a84:	a9018278 	stp	x24, x0, [x19,#24]
 a88:	f9001668 	str	x8, [x19,#40]
 a8c:	710006ff 	cmp	w23, #0x1
 a90:	cb170308 	sub	x8, x24, x23
 a94:	54000141 	b.ne	abc <_ZL13stbi__do_zlibP10stbi__zbufPciii+0xabc>
 a98:	34ffee7a 	cbz	w26, 864 <_ZL13stbi__do_zlibP10stbi__zbufPciii+0x864>
 a9c:	39400101 	ldrb	w1, [x8]
 aa0:	2a1a03e2 	mov	w2, w26
 aa4:	aa1803e0 	mov	x0, x24
 aa8:	94000000 	bl	0 <memset>
 aac:	51000748 	sub	w8, w26, #0x1
 ab0:	8b080308 	add	x8, x24, x8
 ab4:	91000518 	add	x24, x8, #0x1
 ab8:	17ffff6b 	b	864 <_ZL13stbi__do_zlibP10stbi__zbufPciii+0x864>
 abc:	34ffed5a 	cbz	w26, 864 <_ZL13stbi__do_zlibP10stbi__zbufPciii+0x864>
 ac0:	5100074a 	sub	w10, w26, #0x1
 ac4:	91000549 	add	x9, x10, #0x1
 ac8:	f100813f 	cmp	x9, #0x20
 acc:	54000123 	b.cc	af0 <_ZL13stbi__do_zlibP10stbi__zbufPciii+0xaf0>
 ad0:	9100070b 	add	x11, x24, #0x1
 ad4:	cb17014c 	sub	x12, x10, x23
 ad8:	8b0c016c 	add	x12, x11, x12
 adc:	eb0c031f 	cmp	x24, x12
 ae0:	54000162 	b.cs	b0c <_ZL13stbi__do_zlibP10stbi__zbufPciii+0xb0c>
 ae4:	8b0a016a 	add	x10, x11, x10
 ae8:	eb0a011f 	cmp	x8, x10
 aec:	54000102 	b.cs	b0c <_ZL13stbi__do_zlibP10stbi__zbufPciii+0xb0c>
 af0:	aa1803ea 	mov	x10, x24
 af4:	aa0a03f8 	mov	x24, x10
 af8:	38401509 	ldrb	w9, [x8],#1
 afc:	7100075a 	subs	w26, w26, #0x1
 b00:	38001709 	strb	w9, [x24],#1
 b04:	54ffffa1 	b.ne	af8 <_ZL13stbi__do_zlibP10stbi__zbufPciii+0xaf8>
 b08:	17ffff57 	b	864 <_ZL13stbi__do_zlibP10stbi__zbufPciii+0x864>
 b0c:	927b6d2b 	and	x11, x9, #0x1ffffffe0
 b10:	cb1703ec 	neg	x12, x23
 b14:	8b0b030a 	add	x10, x24, x11
 b18:	8b0b0108 	add	x8, x8, x11
 b1c:	4b0b035a 	sub	w26, w26, w11
 b20:	aa0b03ed 	mov	x13, x11
 b24:	8b0c030e 	add	x14, x24, x12
 b28:	ad4005c0 	ldp	q0, q1, [x14]
 b2c:	f10081ad 	subs	x13, x13, #0x20
 b30:	ac810700 	stp	q0, q1, [x24],#32
 b34:	54ffff81 	b.ne	b24 <_ZL13stbi__do_zlibP10stbi__zbufPciii+0xb24>
 b38:	eb0b013f 	cmp	x9, x11
 b3c:	aa0a03f8 	mov	x24, x10
 b40:	54ffe920 	b.eq	864 <_ZL13stbi__do_zlibP10stbi__zbufPciii+0x864>
 b44:	17ffffec 	b	af4 <_ZL13stbi__do_zlibP10stbi__zbufPciii+0xaf4>
 b48:	2a1f03ea 	mov	w10, wzr
 b4c:	34ffdd49 	cbz	w9, 6f4 <_ZL13stbi__do_zlibP10stbi__zbufPciii+0x6f4>
 b50:	14000053 	b	c9c <_ZL13stbi__do_zlibP10stbi__zbufPciii+0xc9c>
 b54:	910103f7 	add	x23, sp, #0x40
 b58:	f9000e78 	str	x24, [x19,#24]
 b5c:	b9401fe8 	ldr	w8, [sp,#28]
 b60:	910823ee 	add	x14, sp, #0x208
 b64:	34ffe4e8 	cbz	w8, 800 <_ZL13stbi__do_zlibP10stbi__zbufPciii+0x800>
 b68:	52800020 	mov	w0, #0x1                   	// #1
 b6c:	14000036 	b	c44 <_ZL13stbi__do_zlibP10stbi__zbufPciii+0xc44>
 b70:	90000008 	adrp	x8, 0 <_ZL13stbi__do_zlibP10stbi__zbufPciii>
 b74:	2a1f03e0 	mov	w0, wzr
 b78:	91000108 	add	x8, x8, #0x0
 b7c:	1400000b 	b	ba8 <_ZL13stbi__do_zlibP10stbi__zbufPciii+0xba8>
 b80:	90000008 	adrp	x8, 0 <_ZL13stbi__do_zlibP10stbi__zbufPciii>
 b84:	91000108 	add	x8, x8, #0x0
 b88:	14000011 	b	bcc <_ZL13stbi__do_zlibP10stbi__zbufPciii+0xbcc>
 b8c:	90000009 	adrp	x9, 0 <_ZL13stbi__do_zlibP10stbi__zbufPciii>
 b90:	90000008 	adrp	x8, 0 <_ZL13stbi__do_zlibP10stbi__zbufPciii>
 b94:	91000129 	add	x9, x9, #0x0
 b98:	14000029 	b	c3c <_ZL13stbi__do_zlibP10stbi__zbufPciii+0xc3c>
 b9c:	90000008 	adrp	x8, 0 <_ZL13stbi__do_zlibP10stbi__zbufPciii>
 ba0:	2a1f03e0 	mov	w0, wzr
 ba4:	91000108 	add	x8, x8, #0x0
 ba8:	90000009 	adrp	x9, 0 <_ZL13stbi__do_zlibP10stbi__zbufPciii>
 bac:	f9000128 	str	x8, [x9]
 bb0:	14000025 	b	c44 <_ZL13stbi__do_zlibP10stbi__zbufPciii+0xc44>
 bb4:	90000009 	adrp	x9, 0 <_ZL13stbi__do_zlibP10stbi__zbufPciii>
 bb8:	90000008 	adrp	x8, 0 <_ZL13stbi__do_zlibP10stbi__zbufPciii>
 bbc:	91000129 	add	x9, x9, #0x0
 bc0:	14000020 	b	c40 <_ZL13stbi__do_zlibP10stbi__zbufPciii+0xc40>
 bc4:	90000008 	adrp	x8, 0 <_ZL13stbi__do_zlibP10stbi__zbufPciii>
 bc8:	91000108 	add	x8, x8, #0x0
 bcc:	2a1f03e0 	mov	w0, wzr
 bd0:	f90001a8 	str	x8, [x13]
 bd4:	f9401588 	ldr	x8, [x12,#40]
 bd8:	f85a03a9 	ldur	x9, [x29,#-96]
 bdc:	eb09011f 	cmp	x8, x9
 be0:	540003c1 	b.ne	c58 <_ZL13stbi__do_zlibP10stbi__zbufPciii+0xc58>
 be4:	912803ff 	add	sp, sp, #0xa00
 be8:	a9457bfd 	ldp	x29, x30, [sp,#80]
 bec:	a9444ff4 	ldp	x20, x19, [sp,#64]
 bf0:	a94357f6 	ldp	x22, x21, [sp,#48]
 bf4:	a9425ff8 	ldp	x24, x23, [sp,#32]
 bf8:	a94167fa 	ldp	x26, x25, [sp,#16]
 bfc:	a8c66ffc 	ldp	x28, x27, [sp],#96
 c00:	d65f03c0 	ret
 c04:	2a1f03e0 	mov	w0, wzr
 c08:	1400000f 	b	c44 <_ZL13stbi__do_zlibP10stbi__zbufPciii+0xc44>
 c0c:	90000009 	adrp	x9, 0 <_ZL13stbi__do_zlibP10stbi__zbufPciii>
 c10:	91000129 	add	x9, x9, #0x0
 c14:	14000009 	b	c38 <_ZL13stbi__do_zlibP10stbi__zbufPciii+0xc38>
 c18:	90000009 	adrp	x9, 0 <_ZL13stbi__do_zlibP10stbi__zbufPciii>
 c1c:	91000129 	add	x9, x9, #0x0
 c20:	14000006 	b	c38 <_ZL13stbi__do_zlibP10stbi__zbufPciii+0xc38>
 c24:	90000009 	adrp	x9, 0 <_ZL13stbi__do_zlibP10stbi__zbufPciii>
 c28:	91000129 	add	x9, x9, #0x0
 c2c:	14000003 	b	c38 <_ZL13stbi__do_zlibP10stbi__zbufPciii+0xc38>
 c30:	90000009 	adrp	x9, 0 <_ZL13stbi__do_zlibP10stbi__zbufPciii>
 c34:	91000129 	add	x9, x9, #0x0
 c38:	90000008 	adrp	x8, 0 <_ZL13stbi__do_zlibP10stbi__zbufPciii>
 c3c:	2a1f03e0 	mov	w0, wzr
 c40:	f9000109 	str	x9, [x8]
 c44:	f9400bec 	ldr	x12, [sp,#16]
 c48:	f9401588 	ldr	x8, [x12,#40]
 c4c:	f85a03a9 	ldur	x9, [x29,#-96]
 c50:	eb09011f 	cmp	x8, x9
 c54:	54fffc80 	b.eq	be4 <_ZL13stbi__do_zlibP10stbi__zbufPciii+0xbe4>
 c58:	94000000 	bl	0 <__stack_chk_fail>
 c5c:	90000000 	adrp	x0, 0 <_ZL13stbi__do_zlibP10stbi__zbufPciii>
 c60:	90000002 	adrp	x2, 0 <_ZL13stbi__do_zlibP10stbi__zbufPciii>
 c64:	90000003 	adrp	x3, 0 <_ZL13stbi__do_zlibP10stbi__zbufPciii>
 c68:	91000000 	add	x0, x0, #0x0
 c6c:	91000042 	add	x2, x2, #0x0
 c70:	91000063 	add	x3, x3, #0x0
 c74:	5281ef61 	mov	w1, #0xf7b                 	// #3963
 c78:	94000000 	bl	0 <__assert2>
 c7c:	90000000 	adrp	x0, 0 <_ZL13stbi__do_zlibP10stbi__zbufPciii>
 c80:	90000002 	adrp	x2, 0 <_ZL13stbi__do_zlibP10stbi__zbufPciii>
 c84:	90000003 	adrp	x3, 0 <_ZL13stbi__do_zlibP10stbi__zbufPciii>
 c88:	91000000 	add	x0, x0, #0x0
 c8c:	91000042 	add	x2, x2, #0x0
 c90:	91000063 	add	x3, x3, #0x0
 c94:	52820321 	mov	w1, #0x1019                	// #4121
 c98:	94000000 	bl	0 <__assert2>
 c9c:	90000000 	adrp	x0, 0 <_ZL13stbi__do_zlibP10stbi__zbufPciii>
 ca0:	90000002 	adrp	x2, 0 <_ZL13stbi__do_zlibP10stbi__zbufPciii>
 ca4:	90000003 	adrp	x3, 0 <_ZL13stbi__do_zlibP10stbi__zbufPciii>
 ca8:	91000000 	add	x0, x0, #0x0
 cac:	91000042 	add	x2, x2, #0x0
 cb0:	91000063 	add	x3, x3, #0x0
 cb4:	52820681 	mov	w1, #0x1034                	// #4148
 cb8:	94000000 	bl	0 <__assert2>

Disassembly of section .text.stbi_zlib_decode_malloc:

0000000000000000 <stbi_zlib_decode_malloc>:
   0:	f81c0ffc 	str	x28, [sp,#-64]!
   4:	a90157f6 	stp	x22, x21, [sp,#16]
   8:	a9024ff4 	stp	x20, x19, [sp,#32]
   c:	a9037bfd 	stp	x29, x30, [sp,#48]
  10:	9100c3fd 	add	x29, sp, #0x30
  14:	d14007ff 	sub	sp, sp, #0x1, lsl #12
  18:	d10043ff 	sub	sp, sp, #0x10
  1c:	d53bd056 	mrs	x22, tpidr_el0
  20:	f94016c8 	ldr	x8, [x22,#40]
  24:	aa0003f4 	mov	x20, x0
  28:	52880000 	mov	w0, #0x4000                	// #16384
  2c:	aa0203f3 	mov	x19, x2
  30:	2a0103f5 	mov	w21, w1
  34:	f81c83a8 	stur	x8, [x29,#-56]
  38:	94000000 	bl	0 <malloc>
  3c:	b40002e0 	cbz	x0, 98 <stbi_zlib_decode_malloc+0x98>
  40:	aa0003e1 	mov	x1, x0
  44:	8b35c288 	add	x8, x20, w21, sxtw
  48:	910023e0 	add	x0, sp, #0x8
  4c:	52880002 	mov	w2, #0x4000                	// #16384
  50:	52800023 	mov	w3, #0x1                   	// #1
  54:	52800024 	mov	w4, #0x1                   	// #1
  58:	a900a3f4 	stp	x20, x8, [sp,#8]
  5c:	94000000 	bl	0 <stbi_zlib_decode_malloc>
  60:	34000160 	cbz	w0, 8c <stbi_zlib_decode_malloc+0x8c>
  64:	b4000313 	cbz	x19, c4 <stbi_zlib_decode_malloc+0xc4>
  68:	b94023e8 	ldr	w8, [sp,#32]
  6c:	f94017e0 	ldr	x0, [sp,#40]
  70:	4b000108 	sub	w8, w8, w0
  74:	b9000268 	str	w8, [x19]
  78:	f94016c8 	ldr	x8, [x22,#40]
  7c:	f85c83a9 	ldur	x9, [x29,#-56]
  80:	eb09011f 	cmp	x8, x9
  84:	54000120 	b.eq	a8 <stbi_zlib_decode_malloc+0xa8>
  88:	14000014 	b	d8 <stbi_zlib_decode_malloc+0xd8>
  8c:	f94017e0 	ldr	x0, [sp,#40]
  90:	94000000 	bl	0 <free>
  94:	aa1f03e0 	mov	x0, xzr
  98:	f94016c8 	ldr	x8, [x22,#40]
  9c:	f85c83a9 	ldur	x9, [x29,#-56]
  a0:	eb09011f 	cmp	x8, x9
  a4:	540001a1 	b.ne	d8 <stbi_zlib_decode_malloc+0xd8>
  a8:	914007ff 	add	sp, sp, #0x1, lsl #12
  ac:	910043ff 	add	sp, sp, #0x10
  b0:	a9437bfd 	ldp	x29, x30, [sp,#48]
  b4:	a9424ff4 	ldp	x20, x19, [sp,#32]
  b8:	a94157f6 	ldp	x22, x21, [sp,#16]
  bc:	f84407fc 	ldr	x28, [sp],#64
  c0:	d65f03c0 	ret
  c4:	f94017e0 	ldr	x0, [sp,#40]
  c8:	f94016c8 	ldr	x8, [x22,#40]
  cc:	f85c83a9 	ldur	x9, [x29,#-56]
  d0:	eb09011f 	cmp	x8, x9
  d4:	54fffea0 	b.eq	a8 <stbi_zlib_decode_malloc+0xa8>
  d8:	94000000 	bl	0 <__stack_chk_fail>

Disassembly of section .text.stbi_zlib_decode_malloc_guesssize_headerflag:

0000000000000000 <stbi_zlib_decode_malloc_guesssize_headerflag>:
   0:	f81b0ffc 	str	x28, [sp,#-80]!
   4:	a9015ff8 	stp	x24, x23, [sp,#16]
   8:	a90257f6 	stp	x22, x21, [sp,#32]
   c:	a9034ff4 	stp	x20, x19, [sp,#48]
  10:	a9047bfd 	stp	x29, x30, [sp,#64]
  14:	910103fd 	add	x29, sp, #0x40
  18:	d14007ff 	sub	sp, sp, #0x1, lsl #12
  1c:	d10043ff 	sub	sp, sp, #0x10
  20:	d53bd058 	mrs	x24, tpidr_el0
  24:	f9401708 	ldr	x8, [x24,#40]
  28:	2a0203f5 	mov	w21, w2
  2c:	aa0003f6 	mov	x22, x0
  30:	93407ea0 	sxtw	x0, w21
  34:	2a0403f4 	mov	w20, w4
  38:	aa0303f3 	mov	x19, x3
  3c:	2a0103f7 	mov	w23, w1
  40:	f81b83a8 	stur	x8, [x29,#-72]
  44:	94000000 	bl	0 <malloc>
  48:	b40002e0 	cbz	x0, a4 <stbi_zlib_decode_malloc_guesssize_headerflag+0xa4>
  4c:	aa0003e1 	mov	x1, x0
  50:	8b37c2c8 	add	x8, x22, w23, sxtw
  54:	910023e0 	add	x0, sp, #0x8
  58:	52800023 	mov	w3, #0x1                   	// #1
  5c:	2a1503e2 	mov	w2, w21
  60:	2a1403e4 	mov	w4, w20
  64:	a900a3f6 	stp	x22, x8, [sp,#8]
  68:	94000000 	bl	0 <stbi_zlib_decode_malloc_guesssize_headerflag>
  6c:	34000160 	cbz	w0, 98 <stbi_zlib_decode_malloc_guesssize_headerflag+0x98>
  70:	b4000333 	cbz	x19, d4 <stbi_zlib_decode_malloc_guesssize_headerflag+0xd4>
  74:	b94023e8 	ldr	w8, [sp,#32]
  78:	f94017e0 	ldr	x0, [sp,#40]
  7c:	4b000108 	sub	w8, w8, w0
  80:	b9000268 	str	w8, [x19]
  84:	f9401708 	ldr	x8, [x24,#40]
  88:	f85b83a9 	ldur	x9, [x29,#-72]
  8c:	eb09011f 	cmp	x8, x9
  90:	54000120 	b.eq	b4 <stbi_zlib_decode_malloc_guesssize_headerflag+0xb4>
  94:	14000015 	b	e8 <stbi_zlib_decode_malloc_guesssize_headerflag+0xe8>
  98:	f94017e0 	ldr	x0, [sp,#40]
  9c:	94000000 	bl	0 <free>
  a0:	aa1f03e0 	mov	x0, xzr
  a4:	f9401708 	ldr	x8, [x24,#40]
  a8:	f85b83a9 	ldur	x9, [x29,#-72]
  ac:	eb09011f 	cmp	x8, x9
  b0:	540001c1 	b.ne	e8 <stbi_zlib_decode_malloc_guesssize_headerflag+0xe8>
  b4:	914007ff 	add	sp, sp, #0x1, lsl #12
  b8:	910043ff 	add	sp, sp, #0x10
  bc:	a9447bfd 	ldp	x29, x30, [sp,#64]
  c0:	a9434ff4 	ldp	x20, x19, [sp,#48]
  c4:	a94257f6 	ldp	x22, x21, [sp,#32]
  c8:	a9415ff8 	ldp	x24, x23, [sp,#16]
  cc:	f84507fc 	ldr	x28, [sp],#80
  d0:	d65f03c0 	ret
  d4:	f94017e0 	ldr	x0, [sp,#40]
  d8:	f9401708 	ldr	x8, [x24,#40]
  dc:	f85b83a9 	ldur	x9, [x29,#-72]
  e0:	eb09011f 	cmp	x8, x9
  e4:	54fffe80 	b.eq	b4 <stbi_zlib_decode_malloc_guesssize_headerflag+0xb4>
  e8:	94000000 	bl	0 <__stack_chk_fail>

Disassembly of section .text.stbi_zlib_decode_buffer:

0000000000000000 <stbi_zlib_decode_buffer>:
   0:	a9be4ffc 	stp	x28, x19, [sp,#-32]!
   4:	a9017bfd 	stp	x29, x30, [sp,#16]
   8:	910043fd 	add	x29, sp, #0x10
   c:	d14007ff 	sub	sp, sp, #0x1, lsl #12
  10:	d10043ff 	sub	sp, sp, #0x10
  14:	d53bd053 	mrs	x19, tpidr_el0
  18:	f9401669 	ldr	x9, [x19,#40]
  1c:	2a0103e8 	mov	w8, w1
  20:	8b23c04a 	add	x10, x2, w3, sxtw
  24:	aa0003e1 	mov	x1, x0
  28:	f81e83a9 	stur	x9, [x29,#-24]
  2c:	a900abe2 	stp	x2, x10, [sp,#8]
  30:	910023e0 	add	x0, sp, #0x8
  34:	52800024 	mov	w4, #0x1                   	// #1
  38:	2a0803e2 	mov	w2, w8
  3c:	2a1f03e3 	mov	w3, wzr
  40:	94000000 	bl	0 <stbi_zlib_decode_buffer>
  44:	340001a0 	cbz	w0, 78 <stbi_zlib_decode_buffer+0x78>
  48:	b9402be8 	ldr	w8, [sp,#40]
  4c:	b94023e9 	ldr	w9, [sp,#32]
  50:	4b080120 	sub	w0, w9, w8
  54:	f9401668 	ldr	x8, [x19,#40]
  58:	f85e83a9 	ldur	x9, [x29,#-24]
  5c:	eb09011f 	cmp	x8, x9
  60:	54000161 	b.ne	8c <stbi_zlib_decode_buffer+0x8c>
  64:	914007ff 	add	sp, sp, #0x1, lsl #12
  68:	910043ff 	add	sp, sp, #0x10
  6c:	a9417bfd 	ldp	x29, x30, [sp,#16]
  70:	a8c24ffc 	ldp	x28, x19, [sp],#32
  74:	d65f03c0 	ret
  78:	12800000 	mov	w0, #0xffffffff            	// #-1
  7c:	f9401668 	ldr	x8, [x19,#40]
  80:	f85e83a9 	ldur	x9, [x29,#-24]
  84:	eb09011f 	cmp	x8, x9
  88:	54fffee0 	b.eq	64 <stbi_zlib_decode_buffer+0x64>
  8c:	94000000 	bl	0 <__stack_chk_fail>

Disassembly of section .text.stbi_zlib_decode_noheader_malloc:

0000000000000000 <stbi_zlib_decode_noheader_malloc>:
   0:	f81c0ffc 	str	x28, [sp,#-64]!
   4:	a90157f6 	stp	x22, x21, [sp,#16]
   8:	a9024ff4 	stp	x20, x19, [sp,#32]
   c:	a9037bfd 	stp	x29, x30, [sp,#48]
  10:	9100c3fd 	add	x29, sp, #0x30
  14:	d14007ff 	sub	sp, sp, #0x1, lsl #12
  18:	d10043ff 	sub	sp, sp, #0x10
  1c:	d53bd056 	mrs	x22, tpidr_el0
  20:	f94016c8 	ldr	x8, [x22,#40]
  24:	aa0003f4 	mov	x20, x0
  28:	52880000 	mov	w0, #0x4000                	// #16384
  2c:	aa0203f3 	mov	x19, x2
  30:	2a0103f5 	mov	w21, w1
  34:	f81c83a8 	stur	x8, [x29,#-56]
  38:	94000000 	bl	0 <malloc>
  3c:	b40002e0 	cbz	x0, 98 <stbi_zlib_decode_noheader_malloc+0x98>
  40:	aa0003e1 	mov	x1, x0
  44:	8b35c288 	add	x8, x20, w21, sxtw
  48:	910023e0 	add	x0, sp, #0x8
  4c:	52880002 	mov	w2, #0x4000                	// #16384
  50:	52800023 	mov	w3, #0x1                   	// #1
  54:	2a1f03e4 	mov	w4, wzr
  58:	a900a3f4 	stp	x20, x8, [sp,#8]
  5c:	94000000 	bl	0 <stbi_zlib_decode_noheader_malloc>
  60:	34000160 	cbz	w0, 8c <stbi_zlib_decode_noheader_malloc+0x8c>
  64:	b4000313 	cbz	x19, c4 <stbi_zlib_decode_noheader_malloc+0xc4>
  68:	b94023e8 	ldr	w8, [sp,#32]
  6c:	f94017e0 	ldr	x0, [sp,#40]
  70:	4b000108 	sub	w8, w8, w0
  74:	b9000268 	str	w8, [x19]
  78:	f94016c8 	ldr	x8, [x22,#40]
  7c:	f85c83a9 	ldur	x9, [x29,#-56]
  80:	eb09011f 	cmp	x8, x9
  84:	54000120 	b.eq	a8 <stbi_zlib_decode_noheader_malloc+0xa8>
  88:	14000014 	b	d8 <stbi_zlib_decode_noheader_malloc+0xd8>
  8c:	f94017e0 	ldr	x0, [sp,#40]
  90:	94000000 	bl	0 <free>
  94:	aa1f03e0 	mov	x0, xzr
  98:	f94016c8 	ldr	x8, [x22,#40]
  9c:	f85c83a9 	ldur	x9, [x29,#-56]
  a0:	eb09011f 	cmp	x8, x9
  a4:	540001a1 	b.ne	d8 <stbi_zlib_decode_noheader_malloc+0xd8>
  a8:	914007ff 	add	sp, sp, #0x1, lsl #12
  ac:	910043ff 	add	sp, sp, #0x10
  b0:	a9437bfd 	ldp	x29, x30, [sp,#48]
  b4:	a9424ff4 	ldp	x20, x19, [sp,#32]
  b8:	a94157f6 	ldp	x22, x21, [sp,#16]
  bc:	f84407fc 	ldr	x28, [sp],#64
  c0:	d65f03c0 	ret
  c4:	f94017e0 	ldr	x0, [sp,#40]
  c8:	f94016c8 	ldr	x8, [x22,#40]
  cc:	f85c83a9 	ldur	x9, [x29,#-56]
  d0:	eb09011f 	cmp	x8, x9
  d4:	54fffea0 	b.eq	a8 <stbi_zlib_decode_noheader_malloc+0xa8>
  d8:	94000000 	bl	0 <__stack_chk_fail>

Disassembly of section .text.stbi_zlib_decode_noheader_buffer:

0000000000000000 <stbi_zlib_decode_noheader_buffer>:
   0:	a9be4ffc 	stp	x28, x19, [sp,#-32]!
   4:	a9017bfd 	stp	x29, x30, [sp,#16]
   8:	910043fd 	add	x29, sp, #0x10
   c:	d14007ff 	sub	sp, sp, #0x1, lsl #12
  10:	d10043ff 	sub	sp, sp, #0x10
  14:	d53bd053 	mrs	x19, tpidr_el0
  18:	f9401669 	ldr	x9, [x19,#40]
  1c:	2a0103e8 	mov	w8, w1
  20:	8b23c04a 	add	x10, x2, w3, sxtw
  24:	aa0003e1 	mov	x1, x0
  28:	f81e83a9 	stur	x9, [x29,#-24]
  2c:	a900abe2 	stp	x2, x10, [sp,#8]
  30:	910023e0 	add	x0, sp, #0x8
  34:	2a0803e2 	mov	w2, w8
  38:	2a1f03e3 	mov	w3, wzr
  3c:	2a1f03e4 	mov	w4, wzr
  40:	94000000 	bl	0 <stbi_zlib_decode_noheader_buffer>
  44:	340001a0 	cbz	w0, 78 <stbi_zlib_decode_noheader_buffer+0x78>
  48:	b9402be8 	ldr	w8, [sp,#40]
  4c:	b94023e9 	ldr	w9, [sp,#32]
  50:	4b080120 	sub	w0, w9, w8
  54:	f9401668 	ldr	x8, [x19,#40]
  58:	f85e83a9 	ldur	x9, [x29,#-24]
  5c:	eb09011f 	cmp	x8, x9
  60:	54000161 	b.ne	8c <stbi_zlib_decode_noheader_buffer+0x8c>
  64:	914007ff 	add	sp, sp, #0x1, lsl #12
  68:	910043ff 	add	sp, sp, #0x10
  6c:	a9417bfd 	ldp	x29, x30, [sp,#16]
  70:	a8c24ffc 	ldp	x28, x19, [sp],#32
  74:	d65f03c0 	ret
  78:	12800000 	mov	w0, #0xffffffff            	// #-1
  7c:	f9401668 	ldr	x8, [x19,#40]
  80:	f85e83a9 	ldur	x9, [x29,#-24]
  84:	eb09011f 	cmp	x8, x9
  88:	54fffee0 	b.eq	64 <stbi_zlib_decode_noheader_buffer+0x64>
  8c:	94000000 	bl	0 <__stack_chk_fail>

Disassembly of section .text.stbi_set_unpremultiply_on_load:

0000000000000000 <stbi_set_unpremultiply_on_load>:
   0:	90000008 	adrp	x8, 0 <stbi_set_unpremultiply_on_load>
   4:	b9000100 	str	w0, [x8]
   8:	d65f03c0 	ret

Disassembly of section .text.stbi_convert_iphone_png_to_rgb:

0000000000000000 <stbi_convert_iphone_png_to_rgb>:
   0:	90000008 	adrp	x8, 0 <stbi_convert_iphone_png_to_rgb>
   4:	b9000100 	str	w0, [x8]
   8:	d65f03c0 	ret

Disassembly of section .text.stbi_info:

0000000000000000 <stbi_info>:
   0:	d10503ff 	sub	sp, sp, #0x140
   4:	f90073fc 	str	x28, [sp,#224]
   8:	a90f67fa 	stp	x26, x25, [sp,#240]
   c:	a9105ff8 	stp	x24, x23, [sp,#256]
  10:	a91157f6 	stp	x22, x21, [sp,#272]
  14:	a9124ff4 	stp	x20, x19, [sp,#288]
  18:	a9137bfd 	stp	x29, x30, [sp,#304]
  1c:	9104c3fd 	add	x29, sp, #0x130
  20:	d53bd059 	mrs	x25, tpidr_el0
  24:	f9401728 	ldr	x8, [x25,#40]
  28:	aa0103f6 	mov	x22, x1
  2c:	90000001 	adrp	x1, 0 <stbi_info>
  30:	91000021 	add	x1, x1, #0x0
  34:	aa0303f3 	mov	x19, x3
  38:	aa0203f5 	mov	x21, x2
  3c:	f81a83a8 	stur	x8, [x29,#-88]
  40:	94000000 	bl	0 <fopen>
  44:	b4000320 	cbz	x0, a8 <stbi_info+0xa8>
  48:	aa0003f4 	mov	x20, x0
  4c:	94000000 	bl	0 <ftell>
  50:	90000008 	adrp	x8, 0 <stbi_info>
  54:	91000108 	add	x8, x8, #0x0
  58:	3dc00100 	ldr	q0, [x8]
  5c:	f9400908 	ldr	x8, [x8,#16]
  60:	90000009 	adrp	x9, 0 <stbi_info>
  64:	fd400121 	ldr	d1, [x9]
  68:	3d8007e0 	str	q0, [sp,#16]
  6c:	a90253e8 	stp	x8, x20, [sp,#32]
  70:	f9400be8 	ldr	x8, [sp,#16]
  74:	910003fa 	mov	x26, sp
  78:	9100e358 	add	x24, x26, #0x38
  7c:	aa0003f7 	mov	x23, x0
  80:	52801002 	mov	w2, #0x80                  	// #128
  84:	aa1403e0 	mov	x0, x20
  88:	aa1803e1 	mov	x1, x24
  8c:	fd001be1 	str	d1, [sp,#48]
  90:	f90067f8 	str	x24, [sp,#200]
  94:	d63f0100 	blr	x8
  98:	340001c0 	cbz	w0, d0 <stbi_info+0xd0>
  9c:	8b20c348 	add	x8, x26, w0, sxtw
  a0:	9100e108 	add	x8, x8, #0x38
  a4:	1400000e 	b	dc <stbi_info+0xdc>
  a8:	90000009 	adrp	x9, 0 <stbi_info>
  ac:	90000008 	adrp	x8, 0 <stbi_info>
  b0:	91000129 	add	x9, x9, #0x0
  b4:	2a1f03f3 	mov	w19, wzr
  b8:	f9000109 	str	x9, [x8]
  bc:	f9401728 	ldr	x8, [x25,#40]
  c0:	f85a83a9 	ldur	x9, [x29,#-88]
  c4:	eb09011f 	cmp	x8, x9
  c8:	540002e0 	b.eq	124 <stbi_info+0x124>
  cc:	1400001f 	b	148 <stbi_info+0x148>
  d0:	b90033ff 	str	wzr, [sp,#48]
  d4:	9100e748 	add	x8, x26, #0x39
  d8:	3900e3ff 	strb	wzr, [sp,#56]
  dc:	910003e0 	mov	x0, sp
  e0:	aa1603e1 	mov	x1, x22
  e4:	aa1503e2 	mov	x2, x21
  e8:	aa1303e3 	mov	x3, x19
  ec:	a90ba3f8 	stp	x24, x8, [sp,#184]
  f0:	f9006be8 	str	x8, [sp,#208]
  f4:	94000000 	bl	0 <stbi_info>
  f8:	2a0003f3 	mov	w19, w0
  fc:	aa1403e0 	mov	x0, x20
 100:	aa1703e1 	mov	x1, x23
 104:	2a1f03e2 	mov	w2, wzr
 108:	94000000 	bl	0 <fseek>
 10c:	aa1403e0 	mov	x0, x20
 110:	94000000 	bl	0 <fclose>
 114:	f9401728 	ldr	x8, [x25,#40]
 118:	f85a83a9 	ldur	x9, [x29,#-88]
 11c:	eb09011f 	cmp	x8, x9
 120:	54000141 	b.ne	148 <stbi_info+0x148>
 124:	2a1303e0 	mov	w0, w19
 128:	a9537bfd 	ldp	x29, x30, [sp,#304]
 12c:	a9524ff4 	ldp	x20, x19, [sp,#288]
 130:	a95157f6 	ldp	x22, x21, [sp,#272]
 134:	a9505ff8 	ldp	x24, x23, [sp,#256]
 138:	a94f67fa 	ldp	x26, x25, [sp,#240]
 13c:	f94073fc 	ldr	x28, [sp,#224]
 140:	910503ff 	add	sp, sp, #0x140
 144:	d65f03c0 	ret
 148:	94000000 	bl	0 <__stack_chk_fail>

Disassembly of section .text.stbi_info_from_file:

0000000000000000 <stbi_info_from_file>:
   0:	d10503ff 	sub	sp, sp, #0x140
   4:	f90073fc 	str	x28, [sp,#224]
   8:	a90f67fa 	stp	x26, x25, [sp,#240]
   c:	a9105ff8 	stp	x24, x23, [sp,#256]
  10:	a91157f6 	stp	x22, x21, [sp,#272]
  14:	a9124ff4 	stp	x20, x19, [sp,#288]
  18:	a9137bfd 	stp	x29, x30, [sp,#304]
  1c:	9104c3fd 	add	x29, sp, #0x130
  20:	d53bd059 	mrs	x25, tpidr_el0
  24:	f9401728 	ldr	x8, [x25,#40]
  28:	aa0303f4 	mov	x20, x3
  2c:	aa0203f5 	mov	x21, x2
  30:	aa0103f7 	mov	x23, x1
  34:	aa0003f3 	mov	x19, x0
  38:	f81a83a8 	stur	x8, [x29,#-88]
  3c:	94000000 	bl	0 <ftell>
  40:	90000008 	adrp	x8, 0 <stbi_info_from_file>
  44:	91000108 	add	x8, x8, #0x0
  48:	3dc00100 	ldr	q0, [x8]
  4c:	f9400908 	ldr	x8, [x8,#16]
  50:	90000009 	adrp	x9, 0 <stbi_info_from_file>
  54:	fd400121 	ldr	d1, [x9]
  58:	3d8007e0 	str	q0, [sp,#16]
  5c:	a9024fe8 	stp	x8, x19, [sp,#32]
  60:	f9400be8 	ldr	x8, [sp,#16]
  64:	910003fa 	mov	x26, sp
  68:	9100e358 	add	x24, x26, #0x38
  6c:	aa0003f6 	mov	x22, x0
  70:	52801002 	mov	w2, #0x80                  	// #128
  74:	aa1303e0 	mov	x0, x19
  78:	aa1803e1 	mov	x1, x24
  7c:	fd001be1 	str	d1, [sp,#48]
  80:	f90067f8 	str	x24, [sp,#200]
  84:	d63f0100 	blr	x8
  88:	34000080 	cbz	w0, 98 <stbi_info_from_file+0x98>
  8c:	8b20c348 	add	x8, x26, w0, sxtw
  90:	9100e108 	add	x8, x8, #0x38
  94:	14000004 	b	a4 <stbi_info_from_file+0xa4>
  98:	b90033ff 	str	wzr, [sp,#48]
  9c:	9100e748 	add	x8, x26, #0x39
  a0:	3900e3ff 	strb	wzr, [sp,#56]
  a4:	910003e0 	mov	x0, sp
  a8:	aa1703e1 	mov	x1, x23
  ac:	aa1503e2 	mov	x2, x21
  b0:	aa1403e3 	mov	x3, x20
  b4:	a90ba3f8 	stp	x24, x8, [sp,#184]
  b8:	f9006be8 	str	x8, [sp,#208]
  bc:	94000000 	bl	0 <stbi_info_from_file>
  c0:	2a0003f4 	mov	w20, w0
  c4:	aa1303e0 	mov	x0, x19
  c8:	aa1603e1 	mov	x1, x22
  cc:	2a1f03e2 	mov	w2, wzr
  d0:	94000000 	bl	0 <fseek>
  d4:	f9401728 	ldr	x8, [x25,#40]
  d8:	f85a83a9 	ldur	x9, [x29,#-88]
  dc:	eb09011f 	cmp	x8, x9
  e0:	54000141 	b.ne	108 <stbi_info_from_file+0x108>
  e4:	2a1403e0 	mov	w0, w20
  e8:	a9537bfd 	ldp	x29, x30, [sp,#304]
  ec:	a9524ff4 	ldp	x20, x19, [sp,#288]
  f0:	a95157f6 	ldp	x22, x21, [sp,#272]
  f4:	a9505ff8 	ldp	x24, x23, [sp,#256]
  f8:	a94f67fa 	ldp	x26, x25, [sp,#240]
  fc:	f94073fc 	ldr	x28, [sp,#224]
 100:	910503ff 	add	sp, sp, #0x140
 104:	d65f03c0 	ret
 108:	94000000 	bl	0 <__stack_chk_fail>

Disassembly of section .text._ZL15stbi__info_mainP13stbi__contextPiS1_S1_:

0000000000000000 <_ZL15stbi__info_mainP13stbi__contextPiS1_S1_>:
       0:	a9ba6ffc 	stp	x28, x27, [sp,#-96]!
       4:	a90167fa 	stp	x26, x25, [sp,#16]
       8:	a9025ff8 	stp	x24, x23, [sp,#32]
       c:	a90357f6 	stp	x22, x21, [sp,#48]
      10:	a9044ff4 	stp	x20, x19, [sp,#64]
      14:	a9057bfd 	stp	x29, x30, [sp,#80]
      18:	910143fd 	add	x29, sp, #0x50
      1c:	d11103ff 	sub	sp, sp, #0x440
      20:	d53bd058 	mrs	x24, tpidr_el0
      24:	f9401708 	ldr	x8, [x24,#40]
      28:	aa0003f6 	mov	x22, x0
      2c:	52891100 	mov	w0, #0x4888                	// #18568
      30:	aa0303f3 	mov	x19, x3
      34:	aa0203f4 	mov	x20, x2
      38:	aa0103f5 	mov	x21, x1
      3c:	f81a03a8 	stur	x8, [x29,#-96]
      40:	94000000 	bl	0 <malloc>
      44:	52800041 	mov	w1, #0x2                   	// #2
      48:	aa0003f7 	mov	x23, x0
      4c:	f9000016 	str	x22, [x0]
      50:	94000000 	bl	0 <_ZL15stbi__info_mainP13stbi__contextPiS1_S1_>
      54:	340003e0 	cbz	w0, d0 <_ZL15stbi__info_mainP13stbi__contextPiS1_S1_+0xd0>
      58:	b4000095 	cbz	x21, 68 <_ZL15stbi__info_mainP13stbi__contextPiS1_S1_+0x68>
      5c:	f94002e8 	ldr	x8, [x23]
      60:	b9400108 	ldr	w8, [x8]
      64:	b90002a8 	str	w8, [x21]
      68:	b4000094 	cbz	x20, 78 <_ZL15stbi__info_mainP13stbi__contextPiS1_S1_+0x78>
      6c:	f94002e8 	ldr	x8, [x23]
      70:	b9400508 	ldr	w8, [x8,#4]
      74:	b9000288 	str	w8, [x20]
      78:	b40000f3 	cbz	x19, 94 <_ZL15stbi__info_mainP13stbi__contextPiS1_S1_+0x94>
      7c:	f94002e8 	ldr	x8, [x23]
      80:	b9400908 	ldr	w8, [x8,#8]
      84:	7100091f 	cmp	w8, #0x2
      88:	52800068 	mov	w8, #0x3                   	// #3
      8c:	1a9fc508 	csinc	w8, w8, wzr, gt
      90:	b9000268 	str	w8, [x19]
      94:	aa1703e0 	mov	x0, x23
      98:	94000000 	bl	0 <free>
      9c:	52800020 	mov	w0, #0x1                   	// #1
      a0:	f9401708 	ldr	x8, [x24,#40]
      a4:	f85a03a9 	ldur	x9, [x29,#-96]
      a8:	eb09011f 	cmp	x8, x9
      ac:	54009881 	b.ne	13bc <_ZL15stbi__info_mainP13stbi__contextPiS1_S1_+0x13bc>
      b0:	911103ff 	add	sp, sp, #0x440
      b4:	a9457bfd 	ldp	x29, x30, [sp,#80]
      b8:	a9444ff4 	ldp	x20, x19, [sp,#64]
      bc:	a94357f6 	ldp	x22, x21, [sp,#48]
      c0:	a9425ff8 	ldp	x24, x23, [sp,#32]
      c4:	a94167fa 	ldp	x26, x25, [sp,#16]
      c8:	a8c66ffc 	ldp	x28, x27, [sp],#96
      cc:	d65f03c0 	ret
      d0:	f94002e8 	ldr	x8, [x23]
      d4:	aa1703e0 	mov	x0, x23
      d8:	3ccc8100 	ldur	q0, [x8,#200]
      dc:	3c8b8100 	stur	q0, [x8,#184]
      e0:	94000000 	bl	0 <free>
      e4:	9100c3e0 	add	x0, sp, #0x30
      e8:	52800041 	mov	w1, #0x2                   	// #2
      ec:	2a1f03e2 	mov	w2, wzr
      f0:	f9001bf6 	str	x22, [sp,#48]
      f4:	94000000 	bl	0 <_ZL15stbi__info_mainP13stbi__contextPiS1_S1_>
      f8:	340001c0 	cbz	w0, 130 <_ZL15stbi__info_mainP13stbi__contextPiS1_S1_+0x130>
      fc:	b4000095 	cbz	x21, 10c <_ZL15stbi__info_mainP13stbi__contextPiS1_S1_+0x10c>
     100:	f9401be8 	ldr	x8, [sp,#48]
     104:	b9400108 	ldr	w8, [x8]
     108:	b90002a8 	str	w8, [x21]
     10c:	b4000094 	cbz	x20, 11c <_ZL15stbi__info_mainP13stbi__contextPiS1_S1_+0x11c>
     110:	f9401be8 	ldr	x8, [sp,#48]
     114:	b9400508 	ldr	w8, [x8,#4]
     118:	b9000288 	str	w8, [x20]
     11c:	b4fffc13 	cbz	x19, 9c <_ZL15stbi__info_mainP13stbi__contextPiS1_S1_+0x9c>
     120:	f9401be8 	ldr	x8, [sp,#48]
     124:	b9400908 	ldr	w8, [x8,#8]
     128:	b9000268 	str	w8, [x19]
     12c:	17ffffdc 	b	9c <_ZL15stbi__info_mainP13stbi__contextPiS1_S1_+0x9c>
     130:	f9401be8 	ldr	x8, [sp,#48]
     134:	52910e00 	mov	w0, #0x8870                	// #34928
     138:	3ccc8100 	ldur	q0, [x8,#200]
     13c:	3c8b8100 	stur	q0, [x8,#184]
     140:	94000000 	bl	0 <malloc>
     144:	aa0003f7 	mov	x23, x0
     148:	52800023 	mov	w3, #0x1                   	// #1
     14c:	aa1603e0 	mov	x0, x22
     150:	aa1703e1 	mov	x1, x23
     154:	aa1303e2 	mov	x2, x19
     158:	94000000 	bl	0 <_ZL15stbi__info_mainP13stbi__contextPiS1_S1_>
     15c:	34000100 	cbz	w0, 17c <_ZL15stbi__info_mainP13stbi__contextPiS1_S1_+0x17c>
     160:	b4000075 	cbz	x21, 16c <_ZL15stbi__info_mainP13stbi__contextPiS1_S1_+0x16c>
     164:	b94002e8 	ldr	w8, [x23]
     168:	b90002a8 	str	w8, [x21]
     16c:	b4fff954 	cbz	x20, 94 <_ZL15stbi__info_mainP13stbi__contextPiS1_S1_+0x94>
     170:	b94006e8 	ldr	w8, [x23,#4]
     174:	b9000288 	str	w8, [x20]
     178:	17ffffc7 	b	94 <_ZL15stbi__info_mainP13stbi__contextPiS1_S1_+0x94>
     17c:	aa1703e0 	mov	x0, x23
     180:	94000000 	bl	0 <free>
     184:	3ccc82c0 	ldur	q0, [x22,#200]
     188:	aa1603f9 	mov	x25, x22
     18c:	52801fe8 	mov	w8, #0xff                  	// #255
     190:	9100c3e1 	add	x1, sp, #0x30
     194:	aa1603e0 	mov	x0, x22
     198:	3c8b8f20 	str	q0, [x25,#184]!
     19c:	b9004fe8 	str	w8, [sp,#76]
     1a0:	9100c3f7 	add	x23, sp, #0x30
     1a4:	94000000 	bl	0 <_ZL15stbi__info_mainP13stbi__contextPiS1_S1_>
     1a8:	3ccc82c0 	ldur	q0, [x22,#200]
     1ac:	3d800320 	str	q0, [x25]
     1b0:	b40001c0 	cbz	x0, 1e8 <_ZL15stbi__info_mainP13stbi__contextPiS1_S1_+0x1e8>
     1b4:	b4000075 	cbz	x21, 1c0 <_ZL15stbi__info_mainP13stbi__contextPiS1_S1_+0x1c0>
     1b8:	b94002c8 	ldr	w8, [x22]
     1bc:	b90002a8 	str	w8, [x21]
     1c0:	b4000074 	cbz	x20, 1cc <_ZL15stbi__info_mainP13stbi__contextPiS1_S1_+0x1cc>
     1c4:	b94006c8 	ldr	w8, [x22,#4]
     1c8:	b9000288 	str	w8, [x20]
     1cc:	b4fff693 	cbz	x19, 9c <_ZL15stbi__info_mainP13stbi__contextPiS1_S1_+0x9c>
     1d0:	b9404be8 	ldr	w8, [sp,#72]
     1d4:	7100011f 	cmp	w8, #0x0
     1d8:	52800068 	mov	w8, #0x3                   	// #3
     1dc:	1a880508 	cinc	w8, w8, ne
     1e0:	b9000268 	str	w8, [x19]
     1e4:	17ffffae 	b	9c <_ZL15stbi__info_mainP13stbi__contextPiS1_S1_+0x9c>
     1e8:	f10002bf 	cmp	x21, #0x0
     1ec:	9a9502fa 	csel	x26, x23, x21, eq
     1f0:	f100029f 	cmp	x20, #0x0
     1f4:	9a9402fb 	csel	x27, x23, x20, eq
     1f8:	f100027f 	cmp	x19, #0x0
     1fc:	aa1603e0 	mov	x0, x22
     200:	9a9302f7 	csel	x23, x23, x19, eq
     204:	94000000 	bl	0 <_ZL15stbi__info_mainP13stbi__contextPiS1_S1_>
     208:	528a0a68 	mov	w8, #0x5053                	// #20563
     20c:	72a70848 	movk	w8, #0x3842, lsl #16
     210:	6b08001f 	cmp	w0, w8
     214:	f9000ff9 	str	x25, [sp,#24]
     218:	54002221 	b.ne	65c <_ZL15stbi__info_mainP13stbi__contextPiS1_S1_+0x65c>
     21c:	a94ba2c9 	ldp	x9, x8, [x22,#184]
     220:	eb08013f 	cmp	x9, x8
     224:	54000282 	b.cs	274 <_ZL15stbi__info_mainP13stbi__contextPiS1_S1_+0x274>
     228:	9100052b 	add	x11, x9, #0x1
     22c:	f900032b 	str	x11, [x25]
     230:	3940012a 	ldrb	w10, [x9]
     234:	aa0b03e9 	mov	x9, x11
     238:	eb08013f 	cmp	x9, x8
     23c:	53185d59 	lsl	w25, w10, #8
     240:	540005a3 	b.cc	2f4 <_ZL15stbi__info_mainP13stbi__contextPiS1_S1_+0x2f4>
     244:	b94032ca 	ldr	w10, [x22,#48]
     248:	340003aa 	cbz	w10, 2bc <_ZL15stbi__info_mainP13stbi__contextPiS1_S1_+0x2bc>
     24c:	f9400ac8 	ldr	x8, [x22,#16]
     250:	f94016c0 	ldr	x0, [x22,#40]
     254:	b94036c2 	ldr	w2, [x22,#52]
     258:	9100e2c1 	add	x1, x22, #0x38
     25c:	d63f0100 	blr	x8
     260:	34000220 	cbz	w0, 2a4 <_ZL15stbi__info_mainP13stbi__contextPiS1_S1_+0x2a4>
     264:	aa1603e8 	mov	x8, x22
     268:	38438d0a 	ldrb	w10, [x8,#56]!
     26c:	8b20c108 	add	x8, x8, w0, sxtw
     270:	14000011 	b	2b4 <_ZL15stbi__info_mainP13stbi__contextPiS1_S1_+0x2b4>
     274:	b94032ca 	ldr	w10, [x22,#48]
     278:	3400038a 	cbz	w10, 2e8 <_ZL15stbi__info_mainP13stbi__contextPiS1_S1_+0x2e8>
     27c:	f9400ac8 	ldr	x8, [x22,#16]
     280:	f94016c0 	ldr	x0, [x22,#40]
     284:	b94036c2 	ldr	w2, [x22,#52]
     288:	9100e2c1 	add	x1, x22, #0x38
     28c:	d63f0100 	blr	x8
     290:	34000200 	cbz	w0, 2d0 <_ZL15stbi__info_mainP13stbi__contextPiS1_S1_+0x2d0>
     294:	aa1603e8 	mov	x8, x22
     298:	38438d0a 	ldrb	w10, [x8,#56]!
     29c:	8b20c108 	add	x8, x8, w0, sxtw
     2a0:	14000010 	b	2e0 <_ZL15stbi__info_mainP13stbi__contextPiS1_S1_+0x2e0>
     2a4:	2a1f03ea 	mov	w10, wzr
     2a8:	b90032df 	str	wzr, [x22,#48]
     2ac:	9100e6c8 	add	x8, x22, #0x39
     2b0:	3900e2df 	strb	wzr, [x22,#56]
     2b4:	9100e6c9 	add	x9, x22, #0x39
     2b8:	a90ba2c9 	stp	x9, x8, [x22,#184]
     2bc:	2a0a032a 	orr	w10, w25, w10
     2c0:	f9400ff9 	ldr	x25, [sp,#24]
     2c4:	7100055f 	cmp	w10, #0x1
     2c8:	54001ca1 	b.ne	65c <_ZL15stbi__info_mainP13stbi__contextPiS1_S1_+0x65c>
     2cc:	14000013 	b	318 <_ZL15stbi__info_mainP13stbi__contextPiS1_S1_+0x318>
     2d0:	2a1f03ea 	mov	w10, wzr
     2d4:	b90032df 	str	wzr, [x22,#48]
     2d8:	9100e6c8 	add	x8, x22, #0x39
     2dc:	3900e2df 	strb	wzr, [x22,#56]
     2e0:	9100e6c9 	add	x9, x22, #0x39
     2e4:	a90ba2c9 	stp	x9, x8, [x22,#184]
     2e8:	eb08013f 	cmp	x9, x8
     2ec:	53185d59 	lsl	w25, w10, #8
     2f0:	54fffaa2 	b.cs	244 <_ZL15stbi__info_mainP13stbi__contextPiS1_S1_+0x244>
     2f4:	f9400fea 	ldr	x10, [sp,#24]
     2f8:	9100052b 	add	x11, x9, #0x1
     2fc:	f900014b 	str	x11, [x10]
     300:	3940012a 	ldrb	w10, [x9]
     304:	aa0b03e9 	mov	x9, x11
     308:	2a0a032a 	orr	w10, w25, w10
     30c:	f9400ff9 	ldr	x25, [sp,#24]
     310:	7100055f 	cmp	w10, #0x1
     314:	54001a41 	b.ne	65c <_ZL15stbi__info_mainP13stbi__contextPiS1_S1_+0x65c>
     318:	f9400aca 	ldr	x10, [x22,#16]
     31c:	b400032a 	cbz	x10, 380 <_ZL15stbi__info_mainP13stbi__contextPiS1_S1_+0x380>
     320:	4b09010a 	sub	w10, w8, w9
     324:	7100155f 	cmp	w10, #0x5
     328:	540002cc 	b.gt	380 <_ZL15stbi__info_mainP13stbi__contextPiS1_S1_+0x380>
     32c:	f9400ec9 	ldr	x9, [x22,#24]
     330:	f94016c0 	ldr	x0, [x22,#40]
     334:	f9005ec8 	str	x8, [x22,#184]
     338:	528000c8 	mov	w8, #0x6                   	// #6
     33c:	4b0a0101 	sub	w1, w8, w10
     340:	d63f0120 	blr	x9
     344:	a94ba2c9 	ldp	x9, x8, [x22,#184]
     348:	eb08013f 	cmp	x9, x8
     34c:	54000223 	b.cc	390 <_ZL15stbi__info_mainP13stbi__contextPiS1_S1_+0x390>
     350:	b94032ca 	ldr	w10, [x22,#48]
     354:	3400050a 	cbz	w10, 3f4 <_ZL15stbi__info_mainP13stbi__contextPiS1_S1_+0x3f4>
     358:	f9400ac8 	ldr	x8, [x22,#16]
     35c:	f94016c0 	ldr	x0, [x22,#40]
     360:	b94036c2 	ldr	w2, [x22,#52]
     364:	9100e2c1 	add	x1, x22, #0x38
     368:	d63f0100 	blr	x8
     36c:	34000380 	cbz	w0, 3dc <_ZL15stbi__info_mainP13stbi__contextPiS1_S1_+0x3dc>
     370:	aa1603e8 	mov	x8, x22
     374:	38438d0a 	ldrb	w10, [x8,#56]!
     378:	8b20c108 	add	x8, x8, w0, sxtw
     37c:	1400001c 	b	3ec <_ZL15stbi__info_mainP13stbi__contextPiS1_S1_+0x3ec>
     380:	91001929 	add	x9, x9, #0x6
     384:	f9000329 	str	x9, [x25]
     388:	eb08013f 	cmp	x9, x8
     38c:	54fffe22 	b.cs	350 <_ZL15stbi__info_mainP13stbi__contextPiS1_S1_+0x350>
     390:	9100052b 	add	x11, x9, #0x1
     394:	f900032b 	str	x11, [x25]
     398:	3940012a 	ldrb	w10, [x9]
     39c:	aa0b03e9 	mov	x9, x11
     3a0:	eb08013f 	cmp	x9, x8
     3a4:	53185d59 	lsl	w25, w10, #8
     3a8:	540002c3 	b.cc	400 <_ZL15stbi__info_mainP13stbi__contextPiS1_S1_+0x400>
     3ac:	b94032c8 	ldr	w8, [x22,#48]
     3b0:	34000468 	cbz	w8, 43c <_ZL15stbi__info_mainP13stbi__contextPiS1_S1_+0x43c>
     3b4:	f9400ac8 	ldr	x8, [x22,#16]
     3b8:	f94016c0 	ldr	x0, [x22,#40]
     3bc:	b94036c2 	ldr	w2, [x22,#52]
     3c0:	9100e2c1 	add	x1, x22, #0x38
     3c4:	d63f0100 	blr	x8
     3c8:	340002e0 	cbz	w0, 424 <_ZL15stbi__info_mainP13stbi__contextPiS1_S1_+0x424>
     3cc:	aa1603e9 	mov	x9, x22
     3d0:	38438d28 	ldrb	w8, [x9,#56]!
     3d4:	8b20c129 	add	x9, x9, w0, sxtw
     3d8:	14000017 	b	434 <_ZL15stbi__info_mainP13stbi__contextPiS1_S1_+0x434>
     3dc:	2a1f03ea 	mov	w10, wzr
     3e0:	b90032df 	str	wzr, [x22,#48]
     3e4:	9100e6c8 	add	x8, x22, #0x39
     3e8:	3900e2df 	strb	wzr, [x22,#56]
     3ec:	9100e6c9 	add	x9, x22, #0x39
     3f0:	a90ba2c9 	stp	x9, x8, [x22,#184]
     3f4:	eb08013f 	cmp	x9, x8
     3f8:	53185d59 	lsl	w25, w10, #8
     3fc:	54fffd82 	b.cs	3ac <_ZL15stbi__info_mainP13stbi__contextPiS1_S1_+0x3ac>
     400:	f9400fea 	ldr	x10, [sp,#24]
     404:	91000528 	add	x8, x9, #0x1
     408:	f9000148 	str	x8, [x10]
     40c:	39400128 	ldrb	w8, [x9]
     410:	2a080328 	orr	w8, w25, w8
     414:	f9400ff9 	ldr	x25, [sp,#24]
     418:	7100411f 	cmp	w8, #0x10
     41c:	54001208 	b.hi	65c <_ZL15stbi__info_mainP13stbi__contextPiS1_S1_+0x65c>
     420:	1400000b 	b	44c <_ZL15stbi__info_mainP13stbi__contextPiS1_S1_+0x44c>
     424:	2a1f03e8 	mov	w8, wzr
     428:	b90032df 	str	wzr, [x22,#48]
     42c:	9100e6c9 	add	x9, x22, #0x39
     430:	3900e2df 	strb	wzr, [x22,#56]
     434:	9100e6ca 	add	x10, x22, #0x39
     438:	a90ba6ca 	stp	x10, x9, [x22,#184]
     43c:	2a080328 	orr	w8, w25, w8
     440:	f9400ff9 	ldr	x25, [sp,#24]
     444:	7100411f 	cmp	w8, #0x10
     448:	540010a8 	b.hi	65c <_ZL15stbi__info_mainP13stbi__contextPiS1_S1_+0x65c>
     44c:	aa1603e0 	mov	x0, x22
     450:	94000000 	bl	0 <_ZL15stbi__info_mainP13stbi__contextPiS1_S1_>
     454:	b9000360 	str	w0, [x27]
     458:	aa1603e0 	mov	x0, x22
     45c:	94000000 	bl	0 <_ZL15stbi__info_mainP13stbi__contextPiS1_S1_>
     460:	b9000340 	str	w0, [x26]
     464:	a94ba2c9 	ldp	x9, x8, [x22,#184]
     468:	eb08013f 	cmp	x9, x8
     46c:	54000282 	b.cs	4bc <_ZL15stbi__info_mainP13stbi__contextPiS1_S1_+0x4bc>
     470:	9100052b 	add	x11, x9, #0x1
     474:	f900032b 	str	x11, [x25]
     478:	3940012a 	ldrb	w10, [x9]
     47c:	aa0b03e9 	mov	x9, x11
     480:	eb08013f 	cmp	x9, x8
     484:	53185d59 	lsl	w25, w10, #8
     488:	540005a3 	b.cc	53c <_ZL15stbi__info_mainP13stbi__contextPiS1_S1_+0x53c>
     48c:	b94032ca 	ldr	w10, [x22,#48]
     490:	340003aa 	cbz	w10, 504 <_ZL15stbi__info_mainP13stbi__contextPiS1_S1_+0x504>
     494:	f9400ac8 	ldr	x8, [x22,#16]
     498:	f94016c0 	ldr	x0, [x22,#40]
     49c:	b94036c2 	ldr	w2, [x22,#52]
     4a0:	9100e2c1 	add	x1, x22, #0x38
     4a4:	d63f0100 	blr	x8
     4a8:	34000220 	cbz	w0, 4ec <_ZL15stbi__info_mainP13stbi__contextPiS1_S1_+0x4ec>
     4ac:	aa1603e8 	mov	x8, x22
     4b0:	38438d0a 	ldrb	w10, [x8,#56]!
     4b4:	8b20c108 	add	x8, x8, w0, sxtw
     4b8:	14000011 	b	4fc <_ZL15stbi__info_mainP13stbi__contextPiS1_S1_+0x4fc>
     4bc:	b94032ca 	ldr	w10, [x22,#48]
     4c0:	3400038a 	cbz	w10, 530 <_ZL15stbi__info_mainP13stbi__contextPiS1_S1_+0x530>
     4c4:	f9400ac8 	ldr	x8, [x22,#16]
     4c8:	f94016c0 	ldr	x0, [x22,#40]
     4cc:	b94036c2 	ldr	w2, [x22,#52]
     4d0:	9100e2c1 	add	x1, x22, #0x38
     4d4:	d63f0100 	blr	x8
     4d8:	34000200 	cbz	w0, 518 <_ZL15stbi__info_mainP13stbi__contextPiS1_S1_+0x518>
     4dc:	aa1603e8 	mov	x8, x22
     4e0:	38438d0a 	ldrb	w10, [x8,#56]!
     4e4:	8b20c108 	add	x8, x8, w0, sxtw
     4e8:	14000010 	b	528 <_ZL15stbi__info_mainP13stbi__contextPiS1_S1_+0x528>
     4ec:	2a1f03ea 	mov	w10, wzr
     4f0:	b90032df 	str	wzr, [x22,#48]
     4f4:	9100e6c8 	add	x8, x22, #0x39
     4f8:	3900e2df 	strb	wzr, [x22,#56]
     4fc:	9100e6c9 	add	x9, x22, #0x39
     500:	a90ba2c9 	stp	x9, x8, [x22,#184]
     504:	f9400fec 	ldr	x12, [sp,#24]
     508:	2a0a032a 	orr	w10, w25, w10
     50c:	7100415f 	cmp	w10, #0x10
     510:	54000281 	b.ne	560 <_ZL15stbi__info_mainP13stbi__contextPiS1_S1_+0x560>
     514:	14000015 	b	568 <_ZL15stbi__info_mainP13stbi__contextPiS1_S1_+0x568>
     518:	2a1f03ea 	mov	w10, wzr
     51c:	b90032df 	str	wzr, [x22,#48]
     520:	9100e6c8 	add	x8, x22, #0x39
     524:	3900e2df 	strb	wzr, [x22,#56]
     528:	9100e6c9 	add	x9, x22, #0x39
     52c:	a90ba2c9 	stp	x9, x8, [x22,#184]
     530:	eb08013f 	cmp	x9, x8
     534:	53185d59 	lsl	w25, w10, #8
     538:	54fffaa2 	b.cs	48c <_ZL15stbi__info_mainP13stbi__contextPiS1_S1_+0x48c>
     53c:	f9400fea 	ldr	x10, [sp,#24]
     540:	9100052b 	add	x11, x9, #0x1
     544:	f900014b 	str	x11, [x10]
     548:	3940012a 	ldrb	w10, [x9]
     54c:	aa0b03e9 	mov	x9, x11
     550:	f9400fec 	ldr	x12, [sp,#24]
     554:	2a0a032a 	orr	w10, w25, w10
     558:	7100415f 	cmp	w10, #0x10
     55c:	54000060 	b.eq	568 <_ZL15stbi__info_mainP13stbi__contextPiS1_S1_+0x568>
     560:	7100215f 	cmp	w10, #0x8
     564:	540007c1 	b.ne	65c <_ZL15stbi__info_mainP13stbi__contextPiS1_S1_+0x65c>
     568:	eb08013f 	cmp	x9, x8
     56c:	54000282 	b.cs	5bc <_ZL15stbi__info_mainP13stbi__contextPiS1_S1_+0x5bc>
     570:	9100052b 	add	x11, x9, #0x1
     574:	f900018b 	str	x11, [x12]
     578:	3940012a 	ldrb	w10, [x9]
     57c:	aa0b03e9 	mov	x9, x11
     580:	eb08013f 	cmp	x9, x8
     584:	53185d59 	lsl	w25, w10, #8
     588:	540005c3 	b.cc	640 <_ZL15stbi__info_mainP13stbi__contextPiS1_S1_+0x640>
     58c:	b94032c8 	ldr	w8, [x22,#48]
     590:	340003a8 	cbz	w8, 604 <_ZL15stbi__info_mainP13stbi__contextPiS1_S1_+0x604>
     594:	f9400ac8 	ldr	x8, [x22,#16]
     598:	f94016c0 	ldr	x0, [x22,#40]
     59c:	b94036c2 	ldr	w2, [x22,#52]
     5a0:	9100e2c1 	add	x1, x22, #0x38
     5a4:	d63f0100 	blr	x8
     5a8:	34000220 	cbz	w0, 5ec <_ZL15stbi__info_mainP13stbi__contextPiS1_S1_+0x5ec>
     5ac:	aa1603e9 	mov	x9, x22
     5b0:	38438d28 	ldrb	w8, [x9,#56]!
     5b4:	8b20c129 	add	x9, x9, w0, sxtw
     5b8:	14000011 	b	5fc <_ZL15stbi__info_mainP13stbi__contextPiS1_S1_+0x5fc>
     5bc:	b94032ca 	ldr	w10, [x22,#48]
     5c0:	340003aa 	cbz	w10, 634 <_ZL15stbi__info_mainP13stbi__contextPiS1_S1_+0x634>
     5c4:	f9400ac8 	ldr	x8, [x22,#16]
     5c8:	f94016c0 	ldr	x0, [x22,#40]
     5cc:	b94036c2 	ldr	w2, [x22,#52]
     5d0:	9100e2c1 	add	x1, x22, #0x38
     5d4:	d63f0100 	blr	x8
     5d8:	34000220 	cbz	w0, 61c <_ZL15stbi__info_mainP13stbi__contextPiS1_S1_+0x61c>
     5dc:	aa1603e8 	mov	x8, x22
     5e0:	38438d0a 	ldrb	w10, [x8,#56]!
     5e4:	8b20c108 	add	x8, x8, w0, sxtw
     5e8:	14000011 	b	62c <_ZL15stbi__info_mainP13stbi__contextPiS1_S1_+0x62c>
     5ec:	2a1f03e8 	mov	w8, wzr
     5f0:	b90032df 	str	wzr, [x22,#48]
     5f4:	9100e6c9 	add	x9, x22, #0x39
     5f8:	3900e2df 	strb	wzr, [x22,#56]
     5fc:	9100e6ca 	add	x10, x22, #0x39
     600:	a90ba6ca 	stp	x10, x9, [x22,#184]
     604:	2a080328 	orr	w8, w25, w8
     608:	71000d1f 	cmp	w8, #0x3
     60c:	54000281 	b.ne	65c <_ZL15stbi__info_mainP13stbi__contextPiS1_S1_+0x65c>
     610:	52800088 	mov	w8, #0x4                   	// #4
     614:	b90002e8 	str	w8, [x23]
     618:	17fffea1 	b	9c <_ZL15stbi__info_mainP13stbi__contextPiS1_S1_+0x9c>
     61c:	2a1f03ea 	mov	w10, wzr
     620:	b90032df 	str	wzr, [x22,#48]
     624:	9100e6c8 	add	x8, x22, #0x39
     628:	3900e2df 	strb	wzr, [x22,#56]
     62c:	9100e6c9 	add	x9, x22, #0x39
     630:	a90ba2c9 	stp	x9, x8, [x22,#184]
     634:	eb08013f 	cmp	x9, x8
     638:	53185d59 	lsl	w25, w10, #8
     63c:	54fffa82 	b.cs	58c <_ZL15stbi__info_mainP13stbi__contextPiS1_S1_+0x58c>
     640:	f9400fea 	ldr	x10, [sp,#24]
     644:	91000528 	add	x8, x9, #0x1
     648:	f9000148 	str	x8, [x10]
     64c:	39400128 	ldrb	w8, [x9]
     650:	2a080328 	orr	w8, w25, w8
     654:	71000d1f 	cmp	w8, #0x3
     658:	54fffdc0 	b.eq	610 <_ZL15stbi__info_mainP13stbi__contextPiS1_S1_+0x610>
     65c:	3ccc82c0 	ldur	q0, [x22,#200]
     660:	f10002bf 	cmp	x21, #0x0
     664:	9100c3e8 	add	x8, sp, #0x30
     668:	9a95011b 	csel	x27, x8, x21, eq
     66c:	f100029f 	cmp	x20, #0x0
     670:	9a940117 	csel	x23, x8, x20, eq
     674:	f100027f 	cmp	x19, #0x0
     678:	90000001 	adrp	x1, 0 <_ZL15stbi__info_mainP13stbi__contextPiS1_S1_>
     67c:	9a930108 	csel	x8, x8, x19, eq
     680:	91000021 	add	x1, x1, #0x0
     684:	aa1603e0 	mov	x0, x22
     688:	3c8b82c0 	stur	q0, [x22,#184]
     68c:	f90003e8 	str	x8, [sp]
     690:	94000000 	bl	0 <_ZL15stbi__info_mainP13stbi__contextPiS1_S1_>
     694:	340029a0 	cbz	w0, bc8 <_ZL15stbi__info_mainP13stbi__contextPiS1_S1_+0xbc8>
     698:	f9400ac8 	ldr	x8, [x22,#16]
     69c:	b4000368 	cbz	x8, 708 <_ZL15stbi__info_mainP13stbi__contextPiS1_S1_+0x708>
     6a0:	a94ba6c8 	ldp	x8, x9, [x22,#184]
     6a4:	f9400ff9 	ldr	x25, [sp,#24]
     6a8:	4b08012a 	sub	w10, w9, w8
     6ac:	71015d5f 	cmp	w10, #0x57
     6b0:	5400030c 	b.gt	710 <_ZL15stbi__info_mainP13stbi__contextPiS1_S1_+0x710>
     6b4:	f9400ec8 	ldr	x8, [x22,#24]
     6b8:	f94016c0 	ldr	x0, [x22,#40]
     6bc:	f9005ec9 	str	x9, [x22,#184]
     6c0:	52800b09 	mov	w9, #0x58                  	// #88
     6c4:	4b0a0121 	sub	w1, w9, w10
     6c8:	d63f0100 	blr	x8
     6cc:	a94ba2c9 	ldp	x9, x8, [x22,#184]
     6d0:	eb08013f 	cmp	x9, x8
     6d4:	54000283 	b.cc	724 <_ZL15stbi__info_mainP13stbi__contextPiS1_S1_+0x724>
     6d8:	b94032ca 	ldr	w10, [x22,#48]
     6dc:	3400056a 	cbz	w10, 788 <_ZL15stbi__info_mainP13stbi__contextPiS1_S1_+0x788>
     6e0:	f9400ac8 	ldr	x8, [x22,#16]
     6e4:	f94016c0 	ldr	x0, [x22,#40]
     6e8:	b94036c2 	ldr	w2, [x22,#52]
     6ec:	9100e2c1 	add	x1, x22, #0x38
     6f0:	d63f0100 	blr	x8
     6f4:	340003e0 	cbz	w0, 770 <_ZL15stbi__info_mainP13stbi__contextPiS1_S1_+0x770>
     6f8:	aa1603e8 	mov	x8, x22
     6fc:	38438d0a 	ldrb	w10, [x8,#56]!
     700:	8b20c108 	add	x8, x8, w0, sxtw
     704:	1400001f 	b	780 <_ZL15stbi__info_mainP13stbi__contextPiS1_S1_+0x780>
     708:	f9400ff9 	ldr	x25, [sp,#24]
     70c:	f9400328 	ldr	x8, [x25]
     710:	91016109 	add	x9, x8, #0x58
     714:	f9000329 	str	x9, [x25]
     718:	f94062c8 	ldr	x8, [x22,#192]
     71c:	eb08013f 	cmp	x9, x8
     720:	54fffdc2 	b.cs	6d8 <_ZL15stbi__info_mainP13stbi__contextPiS1_S1_+0x6d8>
     724:	9100052b 	add	x11, x9, #0x1
     728:	f900032b 	str	x11, [x25]
     72c:	3940012a 	ldrb	w10, [x9]
     730:	aa0b03e9 	mov	x9, x11
     734:	eb08013f 	cmp	x9, x8
     738:	53185d59 	lsl	w25, w10, #8
     73c:	540002c3 	b.cc	794 <_ZL15stbi__info_mainP13stbi__contextPiS1_S1_+0x794>
     740:	b94032ca 	ldr	w10, [x22,#48]
     744:	340005ea 	cbz	w10, 800 <_ZL15stbi__info_mainP13stbi__contextPiS1_S1_+0x800>
     748:	f9400ac8 	ldr	x8, [x22,#16]
     74c:	f94016c0 	ldr	x0, [x22,#40]
     750:	b94036c2 	ldr	w2, [x22,#52]
     754:	9100e2c1 	add	x1, x22, #0x38
     758:	d63f0100 	blr	x8
     75c:	34000460 	cbz	w0, 7e8 <_ZL15stbi__info_mainP13stbi__contextPiS1_S1_+0x7e8>
     760:	aa1603e8 	mov	x8, x22
     764:	38438d0a 	ldrb	w10, [x8,#56]!
     768:	8b20c108 	add	x8, x8, w0, sxtw
     76c:	14000023 	b	7f8 <_ZL15stbi__info_mainP13stbi__contextPiS1_S1_+0x7f8>
     770:	2a1f03ea 	mov	w10, wzr
     774:	b90032df 	str	wzr, [x22,#48]
     778:	9100e6c8 	add	x8, x22, #0x39
     77c:	3900e2df 	strb	wzr, [x22,#56]
     780:	9100e6c9 	add	x9, x22, #0x39
     784:	a90ba2c9 	stp	x9, x8, [x22,#184]
     788:	eb08013f 	cmp	x9, x8
     78c:	53185d59 	lsl	w25, w10, #8
     790:	54fffd82 	b.cs	740 <_ZL15stbi__info_mainP13stbi__contextPiS1_S1_+0x740>
     794:	f9400fea 	ldr	x10, [sp,#24]
     798:	9100052b 	add	x11, x9, #0x1
     79c:	f900014b 	str	x11, [x10]
     7a0:	3940012a 	ldrb	w10, [x9]
     7a4:	aa0b03e9 	mov	x9, x11
     7a8:	2a0a032a 	orr	w10, w25, w10
     7ac:	eb08013f 	cmp	x9, x8
     7b0:	b900036a 	str	w10, [x27]
     7b4:	540002e3 	b.cc	810 <_ZL15stbi__info_mainP13stbi__contextPiS1_S1_+0x810>
     7b8:	b94032ca 	ldr	w10, [x22,#48]
     7bc:	340005ea 	cbz	w10, 878 <_ZL15stbi__info_mainP13stbi__contextPiS1_S1_+0x878>
     7c0:	f9400ac8 	ldr	x8, [x22,#16]
     7c4:	f94016c0 	ldr	x0, [x22,#40]
     7c8:	b94036c2 	ldr	w2, [x22,#52]
     7cc:	9100e2c1 	add	x1, x22, #0x38
     7d0:	d63f0100 	blr	x8
     7d4:	34000460 	cbz	w0, 860 <_ZL15stbi__info_mainP13stbi__contextPiS1_S1_+0x860>
     7d8:	aa1603e8 	mov	x8, x22
     7dc:	38438d0a 	ldrb	w10, [x8,#56]!
     7e0:	8b20c108 	add	x8, x8, w0, sxtw
     7e4:	14000023 	b	870 <_ZL15stbi__info_mainP13stbi__contextPiS1_S1_+0x870>
     7e8:	2a1f03ea 	mov	w10, wzr
     7ec:	b90032df 	str	wzr, [x22,#48]
     7f0:	9100e6c8 	add	x8, x22, #0x39
     7f4:	3900e2df 	strb	wzr, [x22,#56]
     7f8:	9100e6c9 	add	x9, x22, #0x39
     7fc:	a90ba2c9 	stp	x9, x8, [x22,#184]
     800:	2a0a032a 	orr	w10, w25, w10
     804:	eb08013f 	cmp	x9, x8
     808:	b900036a 	str	w10, [x27]
     80c:	54fffd62 	b.cs	7b8 <_ZL15stbi__info_mainP13stbi__contextPiS1_S1_+0x7b8>
     810:	f9400fea 	ldr	x10, [sp,#24]
     814:	9100052b 	add	x11, x9, #0x1
     818:	f900014b 	str	x11, [x10]
     81c:	3940012a 	ldrb	w10, [x9]
     820:	aa0b03e9 	mov	x9, x11
     824:	eb08013f 	cmp	x9, x8
     828:	53185d59 	lsl	w25, w10, #8
     82c:	540002c3 	b.cc	884 <_ZL15stbi__info_mainP13stbi__contextPiS1_S1_+0x884>
     830:	b94032ca 	ldr	w10, [x22,#48]
     834:	3400048a 	cbz	w10, 8c4 <_ZL15stbi__info_mainP13stbi__contextPiS1_S1_+0x8c4>
     838:	f9400ac8 	ldr	x8, [x22,#16]
     83c:	f94016c0 	ldr	x0, [x22,#40]
     840:	b94036c2 	ldr	w2, [x22,#52]
     844:	9100e2c1 	add	x1, x22, #0x38
     848:	d63f0100 	blr	x8
     84c:	34000300 	cbz	w0, 8ac <_ZL15stbi__info_mainP13stbi__contextPiS1_S1_+0x8ac>
     850:	aa1603e8 	mov	x8, x22
     854:	38438d0a 	ldrb	w10, [x8,#56]!
     858:	8b20c108 	add	x8, x8, w0, sxtw
     85c:	14000018 	b	8bc <_ZL15stbi__info_mainP13stbi__contextPiS1_S1_+0x8bc>
     860:	2a1f03ea 	mov	w10, wzr
     864:	b90032df 	str	wzr, [x22,#48]
     868:	9100e6c8 	add	x8, x22, #0x39
     86c:	3900e2df 	strb	wzr, [x22,#56]
     870:	9100e6c9 	add	x9, x22, #0x39
     874:	a90ba2c9 	stp	x9, x8, [x22,#184]
     878:	eb08013f 	cmp	x9, x8
     87c:	53185d59 	lsl	w25, w10, #8
     880:	54fffd82 	b.cs	830 <_ZL15stbi__info_mainP13stbi__contextPiS1_S1_+0x830>
     884:	f9400fea 	ldr	x10, [sp,#24]
     888:	9100052b 	add	x11, x9, #0x1
     88c:	f900014b 	str	x11, [x10]
     890:	3940012a 	ldrb	w10, [x9]
     894:	aa0b03e9 	mov	x9, x11
     898:	2a0a032a 	orr	w10, w25, w10
     89c:	b90002ea 	str	w10, [x23]
     8a0:	f9400aca 	ldr	x10, [x22,#16]
     8a4:	b500018a 	cbnz	x10, 8d4 <_ZL15stbi__info_mainP13stbi__contextPiS1_S1_+0x8d4>
     8a8:	14000011 	b	8ec <_ZL15stbi__info_mainP13stbi__contextPiS1_S1_+0x8ec>
     8ac:	2a1f03ea 	mov	w10, wzr
     8b0:	b90032df 	str	wzr, [x22,#48]
     8b4:	9100e6c8 	add	x8, x22, #0x39
     8b8:	3900e2df 	strb	wzr, [x22,#56]
     8bc:	9100e6c9 	add	x9, x22, #0x39
     8c0:	a90ba2c9 	stp	x9, x8, [x22,#184]
     8c4:	2a0a032a 	orr	w10, w25, w10
     8c8:	b90002ea 	str	w10, [x23]
     8cc:	f9400aca 	ldr	x10, [x22,#16]
     8d0:	b40000ea 	cbz	x10, 8ec <_ZL15stbi__info_mainP13stbi__contextPiS1_S1_+0x8ec>
     8d4:	a94202c8 	ldp	x8, x0, [x22,#32]
     8d8:	d63f0100 	blr	x8
     8dc:	340000c0 	cbz	w0, 8f4 <_ZL15stbi__info_mainP13stbi__contextPiS1_S1_+0x8f4>
     8e0:	b94032c8 	ldr	w8, [x22,#48]
     8e4:	34001728 	cbz	w8, bc8 <_ZL15stbi__info_mainP13stbi__contextPiS1_S1_+0xbc8>
     8e8:	a94ba2c9 	ldp	x9, x8, [x22,#184]
     8ec:	eb08013f 	cmp	x9, x8
     8f0:	540016c2 	b.cs	bc8 <_ZL15stbi__info_mainP13stbi__contextPiS1_S1_+0xbc8>
     8f4:	b9400368 	ldr	w8, [x27]
     8f8:	340000c8 	cbz	w8, 910 <_ZL15stbi__info_mainP13stbi__contextPiS1_S1_+0x910>
     8fc:	b94002e9 	ldr	w9, [x23]
     900:	52a2000a 	mov	w10, #0x10000000            	// #268435456
     904:	1ac80d48 	sdiv	w8, w10, w8
     908:	6b09011f 	cmp	w8, w9
     90c:	540015eb 	b.lt	bc8 <_ZL15stbi__info_mainP13stbi__contextPiS1_S1_+0xbc8>
     910:	f9400ac8 	ldr	x8, [x22,#16]
     914:	b40001a8 	cbz	x8, 948 <_ZL15stbi__info_mainP13stbi__contextPiS1_S1_+0x948>
     918:	a94ba6c8 	ldp	x8, x9, [x22,#184]
     91c:	f9400ff9 	ldr	x25, [sp,#24]
     920:	4b08012a 	sub	w10, w9, w8
     924:	71001d5f 	cmp	w10, #0x7
     928:	5400014c 	b.gt	950 <_ZL15stbi__info_mainP13stbi__contextPiS1_S1_+0x950>
     92c:	f9400ec8 	ldr	x8, [x22,#24]
     930:	f94016c0 	ldr	x0, [x22,#40]
     934:	f9005ec9 	str	x9, [x22,#184]
     938:	52800109 	mov	w9, #0x8                   	// #8
     93c:	4b0a0121 	sub	w1, w9, w10
     940:	d63f0100 	blr	x8
     944:	14000005 	b	958 <_ZL15stbi__info_mainP13stbi__contextPiS1_S1_+0x958>
     948:	f9400ff9 	ldr	x25, [sp,#24]
     94c:	f9400328 	ldr	x8, [x25]
     950:	91002108 	add	x8, x8, #0x8
     954:	f9000328 	str	x8, [x25]
     958:	2a1f03fb 	mov	w27, wzr
     95c:	9100e2c8 	add	x8, x22, #0x38
     960:	9100e6dc 	add	x28, x22, #0x39
     964:	5280017a 	mov	w26, #0xb                   	// #11
     968:	f90007e8 	str	x8, [sp,#8]
     96c:	7100075a 	subs	w26, w26, #0x1
     970:	54001300 	b.eq	bd0 <_ZL15stbi__info_mainP13stbi__contextPiS1_S1_+0xbd0>
     974:	a94ba2c9 	ldp	x9, x8, [x22,#184]
     978:	eb08013f 	cmp	x9, x8
     97c:	54000202 	b.cs	9bc <_ZL15stbi__info_mainP13stbi__contextPiS1_S1_+0x9bc>
     980:	9100052a 	add	x10, x9, #0x1
     984:	f900032a 	str	x10, [x25]
     988:	39400129 	ldrb	w9, [x9]
     98c:	b90017e9 	str	w9, [sp,#20]
     990:	aa0a03e9 	mov	x9, x10
     994:	eb08013f 	cmp	x9, x8
     998:	54000322 	b.cs	9fc <_ZL15stbi__info_mainP13stbi__contextPiS1_S1_+0x9fc>
     99c:	9100052a 	add	x10, x9, #0x1
     9a0:	f900032a 	str	x10, [x25]
     9a4:	39400137 	ldrb	w23, [x9]
     9a8:	aa0a03e9 	mov	x9, x10
     9ac:	eb08013f 	cmp	x9, x8
     9b0:	54000442 	b.cs	a38 <_ZL15stbi__info_mainP13stbi__contextPiS1_S1_+0xa38>
     9b4:	91000529 	add	x9, x9, #0x1
     9b8:	1400004a 	b	ae0 <_ZL15stbi__info_mainP13stbi__contextPiS1_S1_+0xae0>
     9bc:	b94032ca 	ldr	w10, [x22,#48]
     9c0:	3400052a 	cbz	w10, a64 <_ZL15stbi__info_mainP13stbi__contextPiS1_S1_+0xa64>
     9c4:	f9400ac8 	ldr	x8, [x22,#16]
     9c8:	f94016c0 	ldr	x0, [x22,#40]
     9cc:	b94036c2 	ldr	w2, [x22,#52]
     9d0:	f94007e1 	ldr	x1, [sp,#8]
     9d4:	d63f0100 	blr	x8
     9d8:	34000560 	cbz	w0, a84 <_ZL15stbi__info_mainP13stbi__contextPiS1_S1_+0xa84>
     9dc:	aa1603e8 	mov	x8, x22
     9e0:	38438d09 	ldrb	w9, [x8,#56]!
     9e4:	8b20c108 	add	x8, x8, w0, sxtw
     9e8:	b90017e9 	str	w9, [sp,#20]
     9ec:	aa1c03e9 	mov	x9, x28
     9f0:	a90ba2dc 	stp	x28, x8, [x22,#184]
     9f4:	eb08013f 	cmp	x9, x8
     9f8:	54fffd23 	b.cc	99c <_ZL15stbi__info_mainP13stbi__contextPiS1_S1_+0x99c>
     9fc:	b94032ca 	ldr	w10, [x22,#48]
     a00:	340003aa 	cbz	w10, a74 <_ZL15stbi__info_mainP13stbi__contextPiS1_S1_+0xa74>
     a04:	f9400ac8 	ldr	x8, [x22,#16]
     a08:	f94016c0 	ldr	x0, [x22,#40]
     a0c:	b94036c2 	ldr	w2, [x22,#52]
     a10:	f94007e1 	ldr	x1, [sp,#8]
     a14:	d63f0100 	blr	x8
     a18:	34000480 	cbz	w0, aa8 <_ZL15stbi__info_mainP13stbi__contextPiS1_S1_+0xaa8>
     a1c:	aa1603e8 	mov	x8, x22
     a20:	38438d17 	ldrb	w23, [x8,#56]!
     a24:	8b20c108 	add	x8, x8, w0, sxtw
     a28:	aa1c03e9 	mov	x9, x28
     a2c:	a90ba2dc 	stp	x28, x8, [x22,#184]
     a30:	eb08013f 	cmp	x9, x8
     a34:	54fffc03 	b.cc	9b4 <_ZL15stbi__info_mainP13stbi__contextPiS1_S1_+0x9b4>
     a38:	b94032ca 	ldr	w10, [x22,#48]
     a3c:	3400054a 	cbz	w10, ae4 <_ZL15stbi__info_mainP13stbi__contextPiS1_S1_+0xae4>
     a40:	f9400ac8 	ldr	x8, [x22,#16]
     a44:	f94016c0 	ldr	x0, [x22,#40]
     a48:	b94036c2 	ldr	w2, [x22,#52]
     a4c:	f94007e1 	ldr	x1, [sp,#8]
     a50:	d63f0100 	blr	x8
     a54:	340003c0 	cbz	w0, acc <_ZL15stbi__info_mainP13stbi__contextPiS1_S1_+0xacc>
     a58:	8b20c2c8 	add	x8, x22, w0, sxtw
     a5c:	9100e108 	add	x8, x8, #0x38
     a60:	1400001e 	b	ad8 <_ZL15stbi__info_mainP13stbi__contextPiS1_S1_+0xad8>
     a64:	b90017ff 	str	wzr, [sp,#20]
     a68:	eb08013f 	cmp	x9, x8
     a6c:	54fff983 	b.cc	99c <_ZL15stbi__info_mainP13stbi__contextPiS1_S1_+0x99c>
     a70:	17ffffe3 	b	9fc <_ZL15stbi__info_mainP13stbi__contextPiS1_S1_+0x9fc>
     a74:	2a1f03f7 	mov	w23, wzr
     a78:	eb08013f 	cmp	x9, x8
     a7c:	54fff9c3 	b.cc	9b4 <_ZL15stbi__info_mainP13stbi__contextPiS1_S1_+0x9b4>
     a80:	17ffffee 	b	a38 <_ZL15stbi__info_mainP13stbi__contextPiS1_S1_+0xa38>
     a84:	b90017ff 	str	wzr, [sp,#20]
     a88:	b90032df 	str	wzr, [x22,#48]
     a8c:	3900e2df 	strb	wzr, [x22,#56]
     a90:	aa1c03e8 	mov	x8, x28
     a94:	aa1c03e9 	mov	x9, x28
     a98:	a90ba2dc 	stp	x28, x8, [x22,#184]
     a9c:	eb08013f 	cmp	x9, x8
     aa0:	54fff7e3 	b.cc	99c <_ZL15stbi__info_mainP13stbi__contextPiS1_S1_+0x99c>
     aa4:	17ffffd6 	b	9fc <_ZL15stbi__info_mainP13stbi__contextPiS1_S1_+0x9fc>
     aa8:	2a1f03f7 	mov	w23, wzr
     aac:	b90032df 	str	wzr, [x22,#48]
     ab0:	3900e2df 	strb	wzr, [x22,#56]
     ab4:	aa1c03e8 	mov	x8, x28
     ab8:	aa1c03e9 	mov	x9, x28
     abc:	a90ba2dc 	stp	x28, x8, [x22,#184]
     ac0:	eb08013f 	cmp	x9, x8
     ac4:	54fff783 	b.cc	9b4 <_ZL15stbi__info_mainP13stbi__contextPiS1_S1_+0x9b4>
     ac8:	17ffffdc 	b	a38 <_ZL15stbi__info_mainP13stbi__contextPiS1_S1_+0xa38>
     acc:	b90032df 	str	wzr, [x22,#48]
     ad0:	3900e2df 	strb	wzr, [x22,#56]
     ad4:	aa1c03e8 	mov	x8, x28
     ad8:	aa1c03e9 	mov	x9, x28
     adc:	f90062c8 	str	x8, [x22,#192]
     ae0:	f9000329 	str	x9, [x25]
     ae4:	eb08013f 	cmp	x9, x8
     ae8:	54000102 	b.cs	b08 <_ZL15stbi__info_mainP13stbi__contextPiS1_S1_+0xb08>
     aec:	9100052a 	add	x10, x9, #0x1
     af0:	f900032a 	str	x10, [x25]
     af4:	39400139 	ldrb	w25, [x9]
     af8:	aa0a03e9 	mov	x9, x10
     afc:	f9400aca 	ldr	x10, [x22,#16]
     b00:	b50003ca 	cbnz	x10, b78 <_ZL15stbi__info_mainP13stbi__contextPiS1_S1_+0xb78>
     b04:	14000023 	b	b90 <_ZL15stbi__info_mainP13stbi__contextPiS1_S1_+0xb90>
     b08:	b94032ca 	ldr	w10, [x22,#48]
     b0c:	340001ea 	cbz	w10, b48 <_ZL15stbi__info_mainP13stbi__contextPiS1_S1_+0xb48>
     b10:	f9400ac8 	ldr	x8, [x22,#16]
     b14:	f94016c0 	ldr	x0, [x22,#40]
     b18:	b94036c2 	ldr	w2, [x22,#52]
     b1c:	f94007e1 	ldr	x1, [sp,#8]
     b20:	d63f0100 	blr	x8
     b24:	340001a0 	cbz	w0, b58 <_ZL15stbi__info_mainP13stbi__contextPiS1_S1_+0xb58>
     b28:	aa1603e8 	mov	x8, x22
     b2c:	38438d19 	ldrb	w25, [x8,#56]!
     b30:	8b20c108 	add	x8, x8, w0, sxtw
     b34:	aa1c03e9 	mov	x9, x28
     b38:	a90ba2dc 	stp	x28, x8, [x22,#184]
     b3c:	f9400aca 	ldr	x10, [x22,#16]
     b40:	b50001ca 	cbnz	x10, b78 <_ZL15stbi__info_mainP13stbi__contextPiS1_S1_+0xb78>
     b44:	14000013 	b	b90 <_ZL15stbi__info_mainP13stbi__contextPiS1_S1_+0xb90>
     b48:	2a1f03f9 	mov	w25, wzr
     b4c:	f9400aca 	ldr	x10, [x22,#16]
     b50:	b500014a 	cbnz	x10, b78 <_ZL15stbi__info_mainP13stbi__contextPiS1_S1_+0xb78>
     b54:	1400000f 	b	b90 <_ZL15stbi__info_mainP13stbi__contextPiS1_S1_+0xb90>
     b58:	2a1f03f9 	mov	w25, wzr
     b5c:	b90032df 	str	wzr, [x22,#48]
     b60:	3900e2df 	strb	wzr, [x22,#56]
     b64:	aa1c03e8 	mov	x8, x28
     b68:	aa1c03e9 	mov	x9, x28
     b6c:	a90ba2dc 	stp	x28, x8, [x22,#184]
     b70:	f9400aca 	ldr	x10, [x22,#16]
     b74:	b40000ea 	cbz	x10, b90 <_ZL15stbi__info_mainP13stbi__contextPiS1_S1_+0xb90>
     b78:	a94202c8 	ldp	x8, x0, [x22,#32]
     b7c:	d63f0100 	blr	x8
     b80:	340000c0 	cbz	w0, b98 <_ZL15stbi__info_mainP13stbi__contextPiS1_S1_+0xb98>
     b84:	b94032c8 	ldr	w8, [x22,#48]
     b88:	34000208 	cbz	w8, bc8 <_ZL15stbi__info_mainP13stbi__contextPiS1_S1_+0xbc8>
     b8c:	a94ba2c9 	ldp	x9, x8, [x22,#184]
     b90:	eb08013f 	cmp	x9, x8
     b94:	540001a2 	b.cs	bc8 <_ZL15stbi__info_mainP13stbi__contextPiS1_S1_+0xbc8>
     b98:	710022ff 	cmp	w23, #0x8
     b9c:	54000161 	b.ne	bc8 <_ZL15stbi__info_mainP13stbi__contextPiS1_S1_+0xbc8>
     ba0:	2a19037b 	orr	w27, w27, w25
     ba4:	f9400ff9 	ldr	x25, [sp,#24]
     ba8:	b94017e8 	ldr	w8, [sp,#20]
     bac:	35ffee08 	cbnz	w8, 96c <_ZL15stbi__info_mainP13stbi__contextPiS1_S1_+0x96c>
     bb0:	f94003e9 	ldr	x9, [sp]
     bb4:	721c037f 	tst	w27, #0x10
     bb8:	52800068 	mov	w8, #0x3                   	// #3
     bbc:	1a880508 	cinc	w8, w8, ne
     bc0:	b9000128 	str	w8, [x9]
     bc4:	17fffd36 	b	9c <_ZL15stbi__info_mainP13stbi__contextPiS1_S1_+0x9c>
     bc8:	3ccc82c0 	ldur	q0, [x22,#200]
     bcc:	3c8b82c0 	stur	q0, [x22,#184]
     bd0:	aa1603e0 	mov	x0, x22
     bd4:	aa1503e1 	mov	x1, x21
     bd8:	aa1403e2 	mov	x2, x20
     bdc:	aa1303e3 	mov	x3, x19
     be0:	94000000 	bl	0 <_ZL15stbi__info_mainP13stbi__contextPiS1_S1_>
     be4:	35ffa5c0 	cbnz	w0, 9c <_ZL15stbi__info_mainP13stbi__contextPiS1_S1_+0x9c>
     be8:	f10002bf 	cmp	x21, #0x0
     bec:	910093e8 	add	x8, sp, #0x24
     bf0:	9a950119 	csel	x25, x8, x21, eq
     bf4:	f100029f 	cmp	x20, #0x0
     bf8:	9a94011b 	csel	x27, x8, x20, eq
     bfc:	f100027f 	cmp	x19, #0x0
     c00:	aa1603e0 	mov	x0, x22
     c04:	9a93011a 	csel	x26, x8, x19, eq
     c08:	94000000 	bl	0 <_ZL15stbi__info_mainP13stbi__contextPiS1_S1_>
     c0c:	340006a0 	cbz	w0, ce0 <_ZL15stbi__info_mainP13stbi__contextPiS1_S1_+0xce0>
     c10:	9100c3e1 	add	x1, sp, #0x30
     c14:	aa1603e0 	mov	x0, x22
     c18:	94000000 	bl	0 <_ZL15stbi__info_mainP13stbi__contextPiS1_S1_>
     c1c:	39400008 	ldrb	w8, [x0]
     c20:	f90017e0 	str	x0, [sp,#40]
     c24:	340005e8 	cbz	w8, ce0 <_ZL15stbi__info_mainP13stbi__contextPiS1_S1_+0xce0>
     c28:	90000017 	adrp	x23, 0 <_ZL15stbi__info_mainP13stbi__contextPiS1_S1_>
     c2c:	2a1f03fc 	mov	w28, wzr
     c30:	910002f7 	add	x23, x23, #0x0
     c34:	528002e2 	mov	w2, #0x17                  	// #23
     c38:	aa1703e1 	mov	x1, x23
     c3c:	94000000 	bl	0 <memcmp>
     c40:	7100001f 	cmp	w0, #0x0
     c44:	9100c3e1 	add	x1, sp, #0x30
     c48:	aa1603e0 	mov	x0, x22
     c4c:	1a9f179c 	csinc	w28, w28, wzr, ne
     c50:	94000000 	bl	0 <_ZL15stbi__info_mainP13stbi__contextPiS1_S1_>
     c54:	39400008 	ldrb	w8, [x0]
     c58:	35fffee8 	cbnz	w8, c34 <_ZL15stbi__info_mainP13stbi__contextPiS1_S1_+0xc34>
     c5c:	f90017e0 	str	x0, [sp,#40]
     c60:	3400041c 	cbz	w28, ce0 <_ZL15stbi__info_mainP13stbi__contextPiS1_S1_+0xce0>
     c64:	9100c3e1 	add	x1, sp, #0x30
     c68:	aa1603e0 	mov	x0, x22
     c6c:	9100c3f7 	add	x23, sp, #0x30
     c70:	94000000 	bl	0 <_ZL15stbi__info_mainP13stbi__contextPiS1_S1_>
     c74:	90000001 	adrp	x1, 0 <_ZL15stbi__info_mainP13stbi__contextPiS1_S1_>
     c78:	91000021 	add	x1, x1, #0x0
     c7c:	52800062 	mov	w2, #0x3                   	// #3
     c80:	f90017e0 	str	x0, [sp,#40]
     c84:	94000000 	bl	0 <memcmp>
     c88:	350002c0 	cbnz	w0, ce0 <_ZL15stbi__info_mainP13stbi__contextPiS1_S1_+0xce0>
     c8c:	b24006e0 	orr	x0, x23, #0x3
     c90:	9100a3e1 	add	x1, sp, #0x28
     c94:	52800142 	mov	w2, #0xa                   	// #10
     c98:	f90017e0 	str	x0, [sp,#40]
     c9c:	94000000 	bl	0 <strtol>
     ca0:	b9000360 	str	w0, [x27]
     ca4:	f94017f7 	ldr	x23, [sp,#40]
     ca8:	394002e8 	ldrb	w8, [x23]
     cac:	7100811f 	cmp	w8, #0x20
     cb0:	540000a1 	b.ne	cc4 <_ZL15stbi__info_mainP13stbi__contextPiS1_S1_+0xcc4>
     cb4:	38401ee8 	ldrb	w8, [x23,#1]!
     cb8:	7100811f 	cmp	w8, #0x20
     cbc:	54ffffc0 	b.eq	cb4 <_ZL15stbi__info_mainP13stbi__contextPiS1_S1_+0xcb4>
     cc0:	f90017f7 	str	x23, [sp,#40]
     cc4:	90000001 	adrp	x1, 0 <_ZL15stbi__info_mainP13stbi__contextPiS1_S1_>
     cc8:	91000021 	add	x1, x1, #0x0
     ccc:	52800062 	mov	w2, #0x3                   	// #3
     cd0:	aa1703e0 	mov	x0, x23
     cd4:	5280007b 	mov	w27, #0x3                   	// #3
     cd8:	94000000 	bl	0 <strncmp>
     cdc:	34002660 	cbz	w0, 11a8 <_ZL15stbi__info_mainP13stbi__contextPiS1_S1_+0x11a8>
     ce0:	a94ca2c9 	ldp	x9, x8, [x22,#200]
     ce4:	eb08013f 	cmp	x9, x8
     ce8:	a90ba2c9 	stp	x9, x8, [x22,#184]
     cec:	54000082 	b.cs	cfc <_ZL15stbi__info_mainP13stbi__contextPiS1_S1_+0xcfc>
     cf0:	f9400ff7 	ldr	x23, [sp,#24]
     cf4:	91000529 	add	x9, x9, #0x1
     cf8:	14000012 	b	d40 <_ZL15stbi__info_mainP13stbi__contextPiS1_S1_+0xd40>
     cfc:	b94032ca 	ldr	w10, [x22,#48]
     d00:	f9400ff7 	ldr	x23, [sp,#24]
     d04:	3400020a 	cbz	w10, d44 <_ZL15stbi__info_mainP13stbi__contextPiS1_S1_+0xd44>
     d08:	f9400ac8 	ldr	x8, [x22,#16]
     d0c:	f94016c0 	ldr	x0, [x22,#40]
     d10:	b94036c2 	ldr	w2, [x22,#52]
     d14:	9100e2c1 	add	x1, x22, #0x38
     d18:	d63f0100 	blr	x8
     d1c:	34000080 	cbz	w0, d2c <_ZL15stbi__info_mainP13stbi__contextPiS1_S1_+0xd2c>
     d20:	8b20c2c8 	add	x8, x22, w0, sxtw
     d24:	9100e108 	add	x8, x8, #0x38
     d28:	14000004 	b	d38 <_ZL15stbi__info_mainP13stbi__contextPiS1_S1_+0xd38>
     d2c:	b90032df 	str	wzr, [x22,#48]
     d30:	9100e6c8 	add	x8, x22, #0x39
     d34:	3900e2df 	strb	wzr, [x22,#56]
     d38:	9100e6c9 	add	x9, x22, #0x39
     d3c:	f90062c8 	str	x8, [x22,#192]
     d40:	f90002e9 	str	x9, [x23]
     d44:	eb08013f 	cmp	x9, x8
     d48:	54000102 	b.cs	d68 <_ZL15stbi__info_mainP13stbi__contextPiS1_S1_+0xd68>
     d4c:	9100052a 	add	x10, x9, #0x1
     d50:	f90002ea 	str	x10, [x23]
     d54:	39400139 	ldrb	w25, [x9]
     d58:	aa0a03e9 	mov	x9, x10
     d5c:	7100073f 	cmp	w25, #0x1
     d60:	54000c29 	b.ls	ee4 <_ZL15stbi__info_mainP13stbi__contextPiS1_S1_+0xee4>
     d64:	1400018b 	b	1390 <_ZL15stbi__info_mainP13stbi__contextPiS1_S1_+0x1390>
     d68:	b94032ca 	ldr	w10, [x22,#48]
     d6c:	340001ea 	cbz	w10, da8 <_ZL15stbi__info_mainP13stbi__contextPiS1_S1_+0xda8>
     d70:	f9400ac8 	ldr	x8, [x22,#16]
     d74:	f94016c0 	ldr	x0, [x22,#40]
     d78:	b94036c2 	ldr	w2, [x22,#52]
     d7c:	9100e2c1 	add	x1, x22, #0x38
     d80:	d63f0100 	blr	x8
     d84:	34000a00 	cbz	w0, ec4 <_ZL15stbi__info_mainP13stbi__contextPiS1_S1_+0xec4>
     d88:	aa1603e8 	mov	x8, x22
     d8c:	38438d19 	ldrb	w25, [x8,#56]!
     d90:	8b20c108 	add	x8, x8, w0, sxtw
     d94:	9100e6c9 	add	x9, x22, #0x39
     d98:	a90ba2c9 	stp	x9, x8, [x22,#184]
     d9c:	7100073f 	cmp	w25, #0x1
     da0:	54000a29 	b.ls	ee4 <_ZL15stbi__info_mainP13stbi__contextPiS1_S1_+0xee4>
     da4:	1400017b 	b	1390 <_ZL15stbi__info_mainP13stbi__contextPiS1_S1_+0x1390>
     da8:	2a1f03f9 	mov	w25, wzr
     dac:	eb08013f 	cmp	x9, x8
     db0:	540009e3 	b.cc	eec <_ZL15stbi__info_mainP13stbi__contextPiS1_S1_+0xeec>
     db4:	b94032ca 	ldr	w10, [x22,#48]
     db8:	34000eca 	cbz	w10, f90 <_ZL15stbi__info_mainP13stbi__contextPiS1_S1_+0xf90>
     dbc:	f9400ac8 	ldr	x8, [x22,#16]
     dc0:	f94016c0 	ldr	x0, [x22,#40]
     dc4:	b94036c2 	ldr	w2, [x22,#52]
     dc8:	9100e2c1 	add	x1, x22, #0x38
     dcc:	d63f0100 	blr	x8
     dd0:	340012a0 	cbz	w0, 1024 <_ZL15stbi__info_mainP13stbi__contextPiS1_S1_+0x1024>
     dd4:	aa1603e8 	mov	x8, x22
     dd8:	38438d17 	ldrb	w23, [x8,#56]!
     ddc:	8b20c108 	add	x8, x8, w0, sxtw
     de0:	9100e6c9 	add	x9, x22, #0x39
     de4:	a90ba2c9 	stp	x9, x8, [x22,#184]
     de8:	7100073f 	cmp	w25, #0x1
     dec:	540008e0 	b.eq	f08 <_ZL15stbi__info_mainP13stbi__contextPiS1_S1_+0xf08>
     df0:	71002eff 	cmp	w23, #0xb
     df4:	54002ce8 	b.hi	1390 <_ZL15stbi__info_mainP13stbi__contextPiS1_S1_+0x1390>
     df8:	5280002a 	mov	w10, #0x1                   	// #1
     dfc:	1ad7214a 	lsl	w10, w10, w23
     e00:	5281818b 	mov	w11, #0xc0c                 	// #3084
     e04:	6a0b015f 	tst	w10, w11
     e08:	54002c40 	b.eq	1390 <_ZL15stbi__info_mainP13stbi__contextPiS1_S1_+0x1390>
     e0c:	f9400aca 	ldr	x10, [x22,#16]
     e10:	b400054a 	cbz	x10, eb8 <_ZL15stbi__info_mainP13stbi__contextPiS1_S1_+0xeb8>
     e14:	4b09010a 	sub	w10, w8, w9
     e18:	7100215f 	cmp	w10, #0x8
     e1c:	540004ec 	b.gt	eb8 <_ZL15stbi__info_mainP13stbi__contextPiS1_S1_+0xeb8>
     e20:	f9400ec9 	ldr	x9, [x22,#24]
     e24:	f94016c0 	ldr	x0, [x22,#40]
     e28:	f9005ec8 	str	x8, [x22,#184]
     e2c:	52800128 	mov	w8, #0x9                   	// #9
     e30:	4b0a0101 	sub	w1, w8, w10
     e34:	d63f0120 	blr	x9
     e38:	f9400ff9 	ldr	x25, [sp,#24]
     e3c:	2a1f03fa 	mov	w26, wzr
     e40:	a94ba2c9 	ldp	x9, x8, [x22,#184]
     e44:	eb08013f 	cmp	x9, x8
     e48:	540010c3 	b.cc	1060 <_ZL15stbi__info_mainP13stbi__contextPiS1_S1_+0x1060>
     e4c:	b94032ca 	ldr	w10, [x22,#48]
     e50:	3400122a 	cbz	w10, 1094 <_ZL15stbi__info_mainP13stbi__contextPiS1_S1_+0x1094>
     e54:	f9400ac8 	ldr	x8, [x22,#16]
     e58:	f94016c0 	ldr	x0, [x22,#40]
     e5c:	b94036c2 	ldr	w2, [x22,#52]
     e60:	9100e2c1 	add	x1, x22, #0x38
     e64:	d63f0100 	blr	x8
     e68:	340011e0 	cbz	w0, 10a4 <_ZL15stbi__info_mainP13stbi__contextPiS1_S1_+0x10a4>
     e6c:	aa1603e8 	mov	x8, x22
     e70:	38438d1b 	ldrb	w27, [x8,#56]!
     e74:	8b20c108 	add	x8, x8, w0, sxtw
     e78:	9100e6c9 	add	x9, x22, #0x39
     e7c:	a90ba2c9 	stp	x9, x8, [x22,#184]
     e80:	eb08013f 	cmp	x9, x8
     e84:	54000fa3 	b.cc	1078 <_ZL15stbi__info_mainP13stbi__contextPiS1_S1_+0x1078>
     e88:	b94032ca 	ldr	w10, [x22,#48]
     e8c:	340012aa 	cbz	w10, 10e0 <_ZL15stbi__info_mainP13stbi__contextPiS1_S1_+0x10e0>
     e90:	f9400ac8 	ldr	x8, [x22,#16]
     e94:	f94016c0 	ldr	x0, [x22,#40]
     e98:	b94036c2 	ldr	w2, [x22,#52]
     e9c:	9100e2c1 	add	x1, x22, #0x38
     ea0:	d63f0100 	blr	x8
     ea4:	34001120 	cbz	w0, 10c8 <_ZL15stbi__info_mainP13stbi__contextPiS1_S1_+0x10c8>
     ea8:	aa1603e8 	mov	x8, x22
     eac:	38438d0a 	ldrb	w10, [x8,#56]!
     eb0:	8b20c108 	add	x8, x8, w0, sxtw
     eb4:	14000089 	b	10d8 <_ZL15stbi__info_mainP13stbi__contextPiS1_S1_+0x10d8>
     eb8:	2a1f03fa 	mov	w26, wzr
     ebc:	91002528 	add	x8, x9, #0x9
     ec0:	14000063 	b	104c <_ZL15stbi__info_mainP13stbi__contextPiS1_S1_+0x104c>
     ec4:	2a1f03f9 	mov	w25, wzr
     ec8:	b90032df 	str	wzr, [x22,#48]
     ecc:	9100e6c8 	add	x8, x22, #0x39
     ed0:	3900e2df 	strb	wzr, [x22,#56]
     ed4:	9100e6c9 	add	x9, x22, #0x39
     ed8:	a90ba2c9 	stp	x9, x8, [x22,#184]
     edc:	7100073f 	cmp	w25, #0x1
     ee0:	54002588 	b.hi	1390 <_ZL15stbi__info_mainP13stbi__contextPiS1_S1_+0x1390>
     ee4:	eb08013f 	cmp	x9, x8
     ee8:	54fff662 	b.cs	db4 <_ZL15stbi__info_mainP13stbi__contextPiS1_S1_+0xdb4>
     eec:	f9400feb 	ldr	x11, [sp,#24]
     ef0:	9100052a 	add	x10, x9, #0x1
     ef4:	f900016a 	str	x10, [x11]
     ef8:	39400137 	ldrb	w23, [x9]
     efc:	aa0a03e9 	mov	x9, x10
     f00:	7100073f 	cmp	w25, #0x1
     f04:	54fff761 	b.ne	df0 <_ZL15stbi__info_mainP13stbi__contextPiS1_S1_+0xdf0>
     f08:	321d02ea 	orr	w10, w23, #0x8
     f0c:	7100255f 	cmp	w10, #0x9
     f10:	54002401 	b.ne	1390 <_ZL15stbi__info_mainP13stbi__contextPiS1_S1_+0x1390>
     f14:	f9400aca 	ldr	x10, [x22,#16]
     f18:	b400044a 	cbz	x10, fa0 <_ZL15stbi__info_mainP13stbi__contextPiS1_S1_+0xfa0>
     f1c:	4b09010a 	sub	w10, w8, w9
     f20:	71000d5f 	cmp	w10, #0x3
     f24:	540003ec 	b.gt	fa0 <_ZL15stbi__info_mainP13stbi__contextPiS1_S1_+0xfa0>
     f28:	f9400ec9 	ldr	x9, [x22,#24]
     f2c:	f94016c0 	ldr	x0, [x22,#40]
     f30:	f9005ec8 	str	x8, [x22,#184]
     f34:	52800088 	mov	w8, #0x4                   	// #4
     f38:	4b0a0101 	sub	w1, w8, w10
     f3c:	d63f0120 	blr	x9
     f40:	a94ba2ca 	ldp	x10, x8, [x22,#184]
     f44:	f9400feb 	ldr	x11, [sp,#24]
     f48:	eb08015f 	cmp	x10, x8
     f4c:	54000343 	b.cc	fb4 <_ZL15stbi__info_mainP13stbi__contextPiS1_S1_+0xfb4>
     f50:	b94032c8 	ldr	w8, [x22,#48]
     f54:	340021e8 	cbz	w8, 1390 <_ZL15stbi__info_mainP13stbi__contextPiS1_S1_+0x1390>
     f58:	f9400ac8 	ldr	x8, [x22,#16]
     f5c:	f94016c0 	ldr	x0, [x22,#40]
     f60:	b94036c2 	ldr	w2, [x22,#52]
     f64:	9100e2c1 	add	x1, x22, #0x38
     f68:	d63f0100 	blr	x8
     f6c:	34001a20 	cbz	w0, 12b0 <_ZL15stbi__info_mainP13stbi__contextPiS1_S1_+0x12b0>
     f70:	aa1603e8 	mov	x8, x22
     f74:	38438d1a 	ldrb	w26, [x8,#56]!
     f78:	8b20c108 	add	x8, x8, w0, sxtw
     f7c:	9100e6c9 	add	x9, x22, #0x39
     f80:	a90ba2c9 	stp	x9, x8, [x22,#184]
     f84:	7100835f 	cmp	w26, #0x20
     f88:	54000209 	b.ls	fc8 <_ZL15stbi__info_mainP13stbi__contextPiS1_S1_+0xfc8>
     f8c:	14000101 	b	1390 <_ZL15stbi__info_mainP13stbi__contextPiS1_S1_+0x1390>
     f90:	2a1f03f7 	mov	w23, wzr
     f94:	7100073f 	cmp	w25, #0x1
     f98:	54fffb80 	b.eq	f08 <_ZL15stbi__info_mainP13stbi__contextPiS1_S1_+0xf08>
     f9c:	17ffff95 	b	df0 <_ZL15stbi__info_mainP13stbi__contextPiS1_S1_+0xdf0>
     fa0:	f9400feb 	ldr	x11, [sp,#24]
     fa4:	9100112a 	add	x10, x9, #0x4
     fa8:	f900016a 	str	x10, [x11]
     fac:	eb08015f 	cmp	x10, x8
     fb0:	54fffd02 	b.cs	f50 <_ZL15stbi__info_mainP13stbi__contextPiS1_S1_+0xf50>
     fb4:	91000549 	add	x9, x10, #0x1
     fb8:	f9000169 	str	x9, [x11]
     fbc:	3940015a 	ldrb	w26, [x10]
     fc0:	7100835f 	cmp	w26, #0x20
     fc4:	54001e68 	b.hi	1390 <_ZL15stbi__info_mainP13stbi__contextPiS1_S1_+0x1390>
     fc8:	d290200b 	mov	x11, #0x8100                	// #33024
     fcc:	5280002a 	mov	w10, #0x1                   	// #1
     fd0:	f2a0202b 	movk	x11, #0x101, lsl #16
     fd4:	9ada214a 	lsl	x10, x10, x26
     fd8:	f2c0002b 	movk	x11, #0x1, lsl #32
     fdc:	ea0b015f 	tst	x10, x11
     fe0:	54001d80 	b.eq	1390 <_ZL15stbi__info_mainP13stbi__contextPiS1_S1_+0x1390>
     fe4:	f9400aca 	ldr	x10, [x22,#16]
     fe8:	b400030a 	cbz	x10, 1048 <_ZL15stbi__info_mainP13stbi__contextPiS1_S1_+0x1048>
     fec:	4b09010a 	sub	w10, w8, w9
     ff0:	71000d5f 	cmp	w10, #0x3
     ff4:	540002ac 	b.gt	1048 <_ZL15stbi__info_mainP13stbi__contextPiS1_S1_+0x1048>
     ff8:	f9400ec9 	ldr	x9, [x22,#24]
     ffc:	f94016c0 	ldr	x0, [x22,#40]
    1000:	f9005ec8 	str	x8, [x22,#184]
    1004:	52800088 	mov	w8, #0x4                   	// #4
    1008:	4b0a0101 	sub	w1, w8, w10
    100c:	d63f0120 	blr	x9
    1010:	f9400ff9 	ldr	x25, [sp,#24]
    1014:	a94ba2c9 	ldp	x9, x8, [x22,#184]
    1018:	eb08013f 	cmp	x9, x8
    101c:	54fff182 	b.cs	e4c <_ZL15stbi__info_mainP13stbi__contextPiS1_S1_+0xe4c>
    1020:	14000010 	b	1060 <_ZL15stbi__info_mainP13stbi__contextPiS1_S1_+0x1060>
    1024:	2a1f03f7 	mov	w23, wzr
    1028:	b90032df 	str	wzr, [x22,#48]
    102c:	9100e6c8 	add	x8, x22, #0x39
    1030:	3900e2df 	strb	wzr, [x22,#56]
    1034:	9100e6c9 	add	x9, x22, #0x39
    1038:	a90ba2c9 	stp	x9, x8, [x22,#184]
    103c:	7100073f 	cmp	w25, #0x1
    1040:	54ffed81 	b.ne	df0 <_ZL15stbi__info_mainP13stbi__contextPiS1_S1_+0xdf0>
    1044:	17ffffb1 	b	f08 <_ZL15stbi__info_mainP13stbi__contextPiS1_S1_+0xf08>
    1048:	91001128 	add	x8, x9, #0x4
    104c:	f9400ff9 	ldr	x25, [sp,#24]
    1050:	f9000328 	str	x8, [x25]
    1054:	a94ba2c9 	ldp	x9, x8, [x22,#184]
    1058:	eb08013f 	cmp	x9, x8
    105c:	54ffef82 	b.cs	e4c <_ZL15stbi__info_mainP13stbi__contextPiS1_S1_+0xe4c>
    1060:	9100052a 	add	x10, x9, #0x1
    1064:	f900032a 	str	x10, [x25]
    1068:	3940013b 	ldrb	w27, [x9]
    106c:	aa0a03e9 	mov	x9, x10
    1070:	eb08013f 	cmp	x9, x8
    1074:	54fff0a2 	b.cs	e88 <_ZL15stbi__info_mainP13stbi__contextPiS1_S1_+0xe88>
    1078:	9100052b 	add	x11, x9, #0x1
    107c:	f900032b 	str	x11, [x25]
    1080:	3940012a 	ldrb	w10, [x9]
    1084:	aa0b03e9 	mov	x9, x11
    1088:	33181d5b 	bfi	w27, w10, #8, #8
    108c:	350002fb 	cbnz	w27, 10e8 <_ZL15stbi__info_mainP13stbi__contextPiS1_S1_+0x10e8>
    1090:	140000c0 	b	1390 <_ZL15stbi__info_mainP13stbi__contextPiS1_S1_+0x1390>
    1094:	2a1f03fb 	mov	w27, wzr
    1098:	eb08013f 	cmp	x9, x8
    109c:	54fffee3 	b.cc	1078 <_ZL15stbi__info_mainP13stbi__contextPiS1_S1_+0x1078>
    10a0:	17ffff7a 	b	e88 <_ZL15stbi__info_mainP13stbi__contextPiS1_S1_+0xe88>
    10a4:	2a1f03fb 	mov	w27, wzr
    10a8:	b90032df 	str	wzr, [x22,#48]
    10ac:	9100e6c8 	add	x8, x22, #0x39
    10b0:	3900e2df 	strb	wzr, [x22,#56]
    10b4:	9100e6c9 	add	x9, x22, #0x39
    10b8:	a90ba2c9 	stp	x9, x8, [x22,#184]
    10bc:	eb08013f 	cmp	x9, x8
    10c0:	54ffee42 	b.cs	e88 <_ZL15stbi__info_mainP13stbi__contextPiS1_S1_+0xe88>
    10c4:	17ffffed 	b	1078 <_ZL15stbi__info_mainP13stbi__contextPiS1_S1_+0x1078>
    10c8:	2a1f03ea 	mov	w10, wzr
    10cc:	b90032df 	str	wzr, [x22,#48]
    10d0:	9100e6c8 	add	x8, x22, #0x39
    10d4:	3900e2df 	strb	wzr, [x22,#56]
    10d8:	9100e6c9 	add	x9, x22, #0x39
    10dc:	a90ba2c9 	stp	x9, x8, [x22,#184]
    10e0:	33181d5b 	bfi	w27, w10, #8, #8
    10e4:	3400157b 	cbz	w27, 1390 <_ZL15stbi__info_mainP13stbi__contextPiS1_S1_+0x1390>
    10e8:	eb08013f 	cmp	x9, x8
    10ec:	540001e2 	b.cs	1128 <_ZL15stbi__info_mainP13stbi__contextPiS1_S1_+0x1128>
    10f0:	f9400ff9 	ldr	x25, [sp,#24]
    10f4:	9100052a 	add	x10, x9, #0x1
    10f8:	f900032a 	str	x10, [x25]
    10fc:	3940013c 	ldrb	w28, [x9]
    1100:	aa0a03e9 	mov	x9, x10
    1104:	eb08013f 	cmp	x9, x8
    1108:	54000302 	b.cs	1168 <_ZL15stbi__info_mainP13stbi__contextPiS1_S1_+0x1168>
    110c:	9100052b 	add	x11, x9, #0x1
    1110:	f900032b 	str	x11, [x25]
    1114:	3940012a 	ldrb	w10, [x9]
    1118:	aa0b03e9 	mov	x9, x11
    111c:	33181d5c 	bfi	w28, w10, #8, #8
    1120:	3500077c 	cbnz	w28, 120c <_ZL15stbi__info_mainP13stbi__contextPiS1_S1_+0x120c>
    1124:	1400009b 	b	1390 <_ZL15stbi__info_mainP13stbi__contextPiS1_S1_+0x1390>
    1128:	b94032ca 	ldr	w10, [x22,#48]
    112c:	f9400ff9 	ldr	x25, [sp,#24]
    1130:	3400034a 	cbz	w10, 1198 <_ZL15stbi__info_mainP13stbi__contextPiS1_S1_+0x1198>
    1134:	f9400ac8 	ldr	x8, [x22,#16]
    1138:	f94016c0 	ldr	x0, [x22,#40]
    113c:	b94036c2 	ldr	w2, [x22,#52]
    1140:	9100e2c1 	add	x1, x22, #0x38
    1144:	d63f0100 	blr	x8
    1148:	34000400 	cbz	w0, 11c8 <_ZL15stbi__info_mainP13stbi__contextPiS1_S1_+0x11c8>
    114c:	aa1603e8 	mov	x8, x22
    1150:	38438d1c 	ldrb	w28, [x8,#56]!
    1154:	8b20c108 	add	x8, x8, w0, sxtw
    1158:	9100e6c9 	add	x9, x22, #0x39
    115c:	a90ba2c9 	stp	x9, x8, [x22,#184]
    1160:	eb08013f 	cmp	x9, x8
    1164:	54fffd43 	b.cc	110c <_ZL15stbi__info_mainP13stbi__contextPiS1_S1_+0x110c>
    1168:	b94032ca 	ldr	w10, [x22,#48]
    116c:	340004ca 	cbz	w10, 1204 <_ZL15stbi__info_mainP13stbi__contextPiS1_S1_+0x1204>
    1170:	f9400ac8 	ldr	x8, [x22,#16]
    1174:	f94016c0 	ldr	x0, [x22,#40]
    1178:	b94036c2 	ldr	w2, [x22,#52]
    117c:	9100e2c1 	add	x1, x22, #0x38
    1180:	d63f0100 	blr	x8
    1184:	34000340 	cbz	w0, 11ec <_ZL15stbi__info_mainP13stbi__contextPiS1_S1_+0x11ec>
    1188:	aa1603e8 	mov	x8, x22
    118c:	38438d0a 	ldrb	w10, [x8,#56]!
    1190:	8b20c108 	add	x8, x8, w0, sxtw
    1194:	1400001a 	b	11fc <_ZL15stbi__info_mainP13stbi__contextPiS1_S1_+0x11fc>
    1198:	2a1f03fc 	mov	w28, wzr
    119c:	eb08013f 	cmp	x9, x8
    11a0:	54fffb63 	b.cc	110c <_ZL15stbi__info_mainP13stbi__contextPiS1_S1_+0x110c>
    11a4:	17fffff1 	b	1168 <_ZL15stbi__info_mainP13stbi__contextPiS1_S1_+0x1168>
    11a8:	91000ee0 	add	x0, x23, #0x3
    11ac:	52800142 	mov	w2, #0xa                   	// #10
    11b0:	aa1f03e1 	mov	x1, xzr
    11b4:	f90017e0 	str	x0, [sp,#40]
    11b8:	94000000 	bl	0 <strtol>
    11bc:	b9000320 	str	w0, [x25]
    11c0:	b900035b 	str	w27, [x26]
    11c4:	17fffbb6 	b	9c <_ZL15stbi__info_mainP13stbi__contextPiS1_S1_+0x9c>
    11c8:	2a1f03fc 	mov	w28, wzr
    11cc:	b90032df 	str	wzr, [x22,#48]
    11d0:	9100e6c8 	add	x8, x22, #0x39
    11d4:	3900e2df 	strb	wzr, [x22,#56]
    11d8:	9100e6c9 	add	x9, x22, #0x39
    11dc:	a90ba2c9 	stp	x9, x8, [x22,#184]
    11e0:	eb08013f 	cmp	x9, x8
    11e4:	54fffc22 	b.cs	1168 <_ZL15stbi__info_mainP13stbi__contextPiS1_S1_+0x1168>
    11e8:	17ffffc9 	b	110c <_ZL15stbi__info_mainP13stbi__contextPiS1_S1_+0x110c>
    11ec:	2a1f03ea 	mov	w10, wzr
    11f0:	b90032df 	str	wzr, [x22,#48]
    11f4:	9100e6c8 	add	x8, x22, #0x39
    11f8:	3900e2df 	strb	wzr, [x22,#56]
    11fc:	9100e6c9 	add	x9, x22, #0x39
    1200:	a90ba2c9 	stp	x9, x8, [x22,#184]
    1204:	33181d5c 	bfi	w28, w10, #8, #8
    1208:	34000c5c 	cbz	w28, 1390 <_ZL15stbi__info_mainP13stbi__contextPiS1_S1_+0x1390>
    120c:	eb08013f 	cmp	x9, x8
    1210:	54000142 	b.cs	1238 <_ZL15stbi__info_mainP13stbi__contextPiS1_S1_+0x1238>
    1214:	f9400feb 	ldr	x11, [sp,#24]
    1218:	9100052a 	add	x10, x9, #0x1
    121c:	f900016a 	str	x10, [x11]
    1220:	39400139 	ldrb	w25, [x9]
    1224:	aa0a03e9 	mov	x9, x10
    1228:	eb08013f 	cmp	x9, x8
    122c:	54000242 	b.cs	1274 <_ZL15stbi__info_mainP13stbi__contextPiS1_S1_+0x1274>
    1230:	91000528 	add	x8, x9, #0x1
    1234:	14000036 	b	130c <_ZL15stbi__info_mainP13stbi__contextPiS1_S1_+0x130c>
    1238:	b94032ca 	ldr	w10, [x22,#48]
    123c:	3400032a 	cbz	w10, 12a0 <_ZL15stbi__info_mainP13stbi__contextPiS1_S1_+0x12a0>
    1240:	f9400ac8 	ldr	x8, [x22,#16]
    1244:	f94016c0 	ldr	x0, [x22,#40]
    1248:	b94036c2 	ldr	w2, [x22,#52]
    124c:	9100e2c1 	add	x1, x22, #0x38
    1250:	d63f0100 	blr	x8
    1254:	34000400 	cbz	w0, 12d4 <_ZL15stbi__info_mainP13stbi__contextPiS1_S1_+0x12d4>
    1258:	aa1603e8 	mov	x8, x22
    125c:	38438d19 	ldrb	w25, [x8,#56]!
    1260:	8b20c108 	add	x8, x8, w0, sxtw
    1264:	9100e6c9 	add	x9, x22, #0x39
    1268:	a90ba2c9 	stp	x9, x8, [x22,#184]
    126c:	eb08013f 	cmp	x9, x8
    1270:	54fffe03 	b.cc	1230 <_ZL15stbi__info_mainP13stbi__contextPiS1_S1_+0x1230>
    1274:	b94032c8 	ldr	w8, [x22,#48]
    1278:	340004e8 	cbz	w8, 1314 <_ZL15stbi__info_mainP13stbi__contextPiS1_S1_+0x1314>
    127c:	f9400ac8 	ldr	x8, [x22,#16]
    1280:	f94016c0 	ldr	x0, [x22,#40]
    1284:	b94036c2 	ldr	w2, [x22,#52]
    1288:	9100e2c1 	add	x1, x22, #0x38
    128c:	d63f0100 	blr	x8
    1290:	34000340 	cbz	w0, 12f8 <_ZL15stbi__info_mainP13stbi__contextPiS1_S1_+0x12f8>
    1294:	8b20c2c8 	add	x8, x22, w0, sxtw
    1298:	9100e108 	add	x8, x8, #0x38
    129c:	1400001a 	b	1304 <_ZL15stbi__info_mainP13stbi__contextPiS1_S1_+0x1304>
    12a0:	2a1f03f9 	mov	w25, wzr
    12a4:	eb08013f 	cmp	x9, x8
    12a8:	54fffc43 	b.cc	1230 <_ZL15stbi__info_mainP13stbi__contextPiS1_S1_+0x1230>
    12ac:	17fffff2 	b	1274 <_ZL15stbi__info_mainP13stbi__contextPiS1_S1_+0x1274>
    12b0:	2a1f03fa 	mov	w26, wzr
    12b4:	b90032df 	str	wzr, [x22,#48]
    12b8:	9100e6c8 	add	x8, x22, #0x39
    12bc:	3900e2df 	strb	wzr, [x22,#56]
    12c0:	9100e6c9 	add	x9, x22, #0x39
    12c4:	a90ba2c9 	stp	x9, x8, [x22,#184]
    12c8:	7100835f 	cmp	w26, #0x20
    12cc:	54ffe7e9 	b.ls	fc8 <_ZL15stbi__info_mainP13stbi__contextPiS1_S1_+0xfc8>
    12d0:	14000030 	b	1390 <_ZL15stbi__info_mainP13stbi__contextPiS1_S1_+0x1390>
    12d4:	2a1f03f9 	mov	w25, wzr
    12d8:	b90032df 	str	wzr, [x22,#48]
    12dc:	9100e6c8 	add	x8, x22, #0x39
    12e0:	3900e2df 	strb	wzr, [x22,#56]
    12e4:	9100e6c9 	add	x9, x22, #0x39
    12e8:	a90ba2c9 	stp	x9, x8, [x22,#184]
    12ec:	eb08013f 	cmp	x9, x8
    12f0:	54fffc22 	b.cs	1274 <_ZL15stbi__info_mainP13stbi__contextPiS1_S1_+0x1274>
    12f4:	17ffffcf 	b	1230 <_ZL15stbi__info_mainP13stbi__contextPiS1_S1_+0x1230>
    12f8:	b90032df 	str	wzr, [x22,#48]
    12fc:	9100e6c8 	add	x8, x22, #0x39
    1300:	3900e2df 	strb	wzr, [x22,#56]
    1304:	f90062c8 	str	x8, [x22,#192]
    1308:	9100e6c8 	add	x8, x22, #0x39
    130c:	f9400fe9 	ldr	x9, [sp,#24]
    1310:	f9000128 	str	x8, [x9]
    1314:	3400025a 	cbz	w26, 135c <_ZL15stbi__info_mainP13stbi__contextPiS1_S1_+0x135c>
    1318:	7100433f 	cmp	w25, #0x10
    131c:	54000060 	b.eq	1328 <_ZL15stbi__info_mainP13stbi__contextPiS1_S1_+0x1328>
    1320:	7100233f 	cmp	w25, #0x8
    1324:	54000361 	b.ne	1390 <_ZL15stbi__info_mainP13stbi__contextPiS1_S1_+0x1390>
    1328:	51002348 	sub	w8, w26, #0x8
    132c:	7100611f 	cmp	w8, #0x18
    1330:	54000308 	b.hi	1390 <_ZL15stbi__info_mainP13stbi__contextPiS1_S1_+0x1390>
    1334:	90000009 	adrp	x9, 0 <_ZL15stbi__info_mainP13stbi__contextPiS1_S1_>
    1338:	91000129 	add	x9, x9, #0x0
    133c:	100000aa 	adr	x10, 1350 <_ZL15stbi__info_mainP13stbi__contextPiS1_S1_+0x1350>
    1340:	3868692b 	ldrb	w11, [x9,x8]
    1344:	8b0b094a 	add	x10, x10, x11, lsl #2
    1348:	52800028 	mov	w8, #0x1                   	// #1
    134c:	d61f0140 	br	x10
    1350:	53037f48 	lsr	w8, w26, #3
    1354:	35000448 	cbnz	w8, 13dc <_ZL15stbi__info_mainP13stbi__contextPiS1_S1_+0x13dc>
    1358:	1400000e 	b	1390 <_ZL15stbi__info_mainP13stbi__contextPiS1_S1_+0x1390>
    135c:	51002328 	sub	w8, w25, #0x8
    1360:	7100611f 	cmp	w8, #0x18
    1364:	54000168 	b.hi	1390 <_ZL15stbi__info_mainP13stbi__contextPiS1_S1_+0x1390>
    1368:	90000009 	adrp	x9, 0 <_ZL15stbi__info_mainP13stbi__contextPiS1_S1_>
    136c:	91000129 	add	x9, x9, #0x0
    1370:	100000aa 	adr	x10, 1384 <_ZL15stbi__info_mainP13stbi__contextPiS1_S1_+0x1384>
    1374:	3868692b 	ldrb	w11, [x9,x8]
    1378:	8b0b094a 	add	x10, x10, x11, lsl #2
    137c:	52800028 	mov	w8, #0x1                   	// #1
    1380:	d61f0140 	br	x10
    1384:	53037f28 	lsr	w8, w25, #3
    1388:	b50002d5 	cbnz	x21, 13e0 <_ZL15stbi__info_mainP13stbi__contextPiS1_S1_+0x13e0>
    138c:	14000016 	b	13e4 <_ZL15stbi__info_mainP13stbi__contextPiS1_S1_+0x13e4>
    1390:	3ccc82c0 	ldur	q0, [x22,#200]
    1394:	90000009 	adrp	x9, 0 <_ZL15stbi__info_mainP13stbi__contextPiS1_S1_>
    1398:	2a1f03e0 	mov	w0, wzr
    139c:	90000008 	adrp	x8, 0 <_ZL15stbi__info_mainP13stbi__contextPiS1_S1_>
    13a0:	91000129 	add	x9, x9, #0x0
    13a4:	3c8b82c0 	stur	q0, [x22,#184]
    13a8:	f9000109 	str	x9, [x8]
    13ac:	f9401708 	ldr	x8, [x24,#40]
    13b0:	f85a03a9 	ldur	x9, [x29,#-96]
    13b4:	eb09011f 	cmp	x8, x9
    13b8:	54ff67c0 	b.eq	b0 <_ZL15stbi__info_mainP13stbi__contextPiS1_S1_+0xb0>
    13bc:	94000000 	bl	0 <__stack_chk_fail>
    13c0:	52800068 	mov	w8, #0x3                   	// #3
    13c4:	b50000f5 	cbnz	x21, 13e0 <_ZL15stbi__info_mainP13stbi__contextPiS1_S1_+0x13e0>
    13c8:	14000007 	b	13e4 <_ZL15stbi__info_mainP13stbi__contextPiS1_S1_+0x13e4>
    13cc:	321d02e8 	orr	w8, w23, #0x8
    13d0:	71002d1f 	cmp	w8, #0xb
    13d4:	52800048 	mov	w8, #0x2                   	// #2
    13d8:	1a880508 	cinc	w8, w8, ne
    13dc:	b4000055 	cbz	x21, 13e4 <_ZL15stbi__info_mainP13stbi__contextPiS1_S1_+0x13e4>
    13e0:	b90002bb 	str	w27, [x21]
    13e4:	b4000054 	cbz	x20, 13ec <_ZL15stbi__info_mainP13stbi__contextPiS1_S1_+0x13ec>
    13e8:	b900029c 	str	w28, [x20]
    13ec:	b4ff6593 	cbz	x19, 9c <_ZL15stbi__info_mainP13stbi__contextPiS1_S1_+0x9c>
    13f0:	b9000268 	str	w8, [x19]
    13f4:	17fffb2a 	b	9c <_ZL15stbi__info_mainP13stbi__contextPiS1_S1_+0x9c>

Disassembly of section .text.stbi_is_16_bit:

0000000000000000 <stbi_is_16_bit>:
   0:	d10483ff 	sub	sp, sp, #0x120
   4:	a90e5ffc 	stp	x28, x23, [sp,#224]
   8:	a90f57f6 	stp	x22, x21, [sp,#240]
   c:	a9104ff4 	stp	x20, x19, [sp,#256]
  10:	a9117bfd 	stp	x29, x30, [sp,#272]
  14:	910443fd 	add	x29, sp, #0x110
  18:	d53bd056 	mrs	x22, tpidr_el0
  1c:	f94016c8 	ldr	x8, [x22,#40]
  20:	90000001 	adrp	x1, 0 <stbi_is_16_bit>
  24:	91000021 	add	x1, x1, #0x0
  28:	f81c83a8 	stur	x8, [x29,#-56]
  2c:	94000000 	bl	0 <fopen>
  30:	b4000320 	cbz	x0, 94 <stbi_is_16_bit+0x94>
  34:	aa0003f3 	mov	x19, x0
  38:	94000000 	bl	0 <ftell>
  3c:	90000008 	adrp	x8, 0 <stbi_is_16_bit>
  40:	91000108 	add	x8, x8, #0x0
  44:	3dc00100 	ldr	q0, [x8]
  48:	f9400908 	ldr	x8, [x8,#16]
  4c:	90000009 	adrp	x9, 0 <stbi_is_16_bit>
  50:	fd400121 	ldr	d1, [x9]
  54:	3d8007e0 	str	q0, [sp,#16]
  58:	a9024fe8 	stp	x8, x19, [sp,#32]
  5c:	f9400be8 	ldr	x8, [sp,#16]
  60:	910003f7 	mov	x23, sp
  64:	9100e2f5 	add	x21, x23, #0x38
  68:	aa0003f4 	mov	x20, x0
  6c:	52801002 	mov	w2, #0x80                  	// #128
  70:	aa1303e0 	mov	x0, x19
  74:	aa1503e1 	mov	x1, x21
  78:	fd001be1 	str	d1, [sp,#48]
  7c:	f90067f5 	str	x21, [sp,#200]
  80:	d63f0100 	blr	x8
  84:	340001c0 	cbz	w0, bc <stbi_is_16_bit+0xbc>
  88:	8b20c2e8 	add	x8, x23, w0, sxtw
  8c:	9100e108 	add	x8, x8, #0x38
  90:	1400000e 	b	c8 <stbi_is_16_bit+0xc8>
  94:	90000009 	adrp	x9, 0 <stbi_is_16_bit>
  98:	90000008 	adrp	x8, 0 <stbi_is_16_bit>
  9c:	91000129 	add	x9, x9, #0x0
  a0:	2a1f03f5 	mov	w21, wzr
  a4:	f9000109 	str	x9, [x8]
  a8:	f94016c8 	ldr	x8, [x22,#40]
  ac:	f85c83a9 	ldur	x9, [x29,#-56]
  b0:	eb09011f 	cmp	x8, x9
  b4:	54000280 	b.eq	104 <stbi_is_16_bit+0x104>
  b8:	1400001a 	b	120 <stbi_is_16_bit+0x120>
  bc:	b90033ff 	str	wzr, [sp,#48]
  c0:	9100e6e8 	add	x8, x23, #0x39
  c4:	3900e3ff 	strb	wzr, [sp,#56]
  c8:	910003e0 	mov	x0, sp
  cc:	a90ba3f5 	stp	x21, x8, [sp,#184]
  d0:	f9006be8 	str	x8, [sp,#208]
  d4:	94000000 	bl	0 <stbi_is_16_bit>
  d8:	2a0003f5 	mov	w21, w0
  dc:	aa1303e0 	mov	x0, x19
  e0:	aa1403e1 	mov	x1, x20
  e4:	2a1f03e2 	mov	w2, wzr
  e8:	94000000 	bl	0 <fseek>
  ec:	aa1303e0 	mov	x0, x19
  f0:	94000000 	bl	0 <fclose>
  f4:	f94016c8 	ldr	x8, [x22,#40]
  f8:	f85c83a9 	ldur	x9, [x29,#-56]
  fc:	eb09011f 	cmp	x8, x9
 100:	54000101 	b.ne	120 <stbi_is_16_bit+0x120>
 104:	2a1503e0 	mov	w0, w21
 108:	a9517bfd 	ldp	x29, x30, [sp,#272]
 10c:	a9504ff4 	ldp	x20, x19, [sp,#256]
 110:	a94f57f6 	ldp	x22, x21, [sp,#240]
 114:	a94e5ffc 	ldp	x28, x23, [sp,#224]
 118:	910483ff 	add	sp, sp, #0x120
 11c:	d65f03c0 	ret
 120:	94000000 	bl	0 <__stack_chk_fail>

Disassembly of section .text.stbi_is_16_bit_from_file:

0000000000000000 <stbi_is_16_bit_from_file>:
   0:	d10483ff 	sub	sp, sp, #0x120
   4:	a90e5ffc 	stp	x28, x23, [sp,#224]
   8:	a90f57f6 	stp	x22, x21, [sp,#240]
   c:	a9104ff4 	stp	x20, x19, [sp,#256]
  10:	a9117bfd 	stp	x29, x30, [sp,#272]
  14:	910443fd 	add	x29, sp, #0x110
  18:	d53bd056 	mrs	x22, tpidr_el0
  1c:	f94016c8 	ldr	x8, [x22,#40]
  20:	aa0003f3 	mov	x19, x0
  24:	f81c83a8 	stur	x8, [x29,#-56]
  28:	94000000 	bl	0 <ftell>
  2c:	90000008 	adrp	x8, 0 <stbi_is_16_bit_from_file>
  30:	91000108 	add	x8, x8, #0x0
  34:	3dc00100 	ldr	q0, [x8]
  38:	f9400908 	ldr	x8, [x8,#16]
  3c:	90000009 	adrp	x9, 0 <stbi_is_16_bit_from_file>
  40:	fd400121 	ldr	d1, [x9]
  44:	3d8007e0 	str	q0, [sp,#16]
  48:	a9024fe8 	stp	x8, x19, [sp,#32]
  4c:	f9400be8 	ldr	x8, [sp,#16]
  50:	910003f7 	mov	x23, sp
  54:	9100e2f5 	add	x21, x23, #0x38
  58:	aa0003f4 	mov	x20, x0
  5c:	52801002 	mov	w2, #0x80                  	// #128
  60:	aa1303e0 	mov	x0, x19
  64:	aa1503e1 	mov	x1, x21
  68:	fd001be1 	str	d1, [sp,#48]
  6c:	f90067f5 	str	x21, [sp,#200]
  70:	d63f0100 	blr	x8
  74:	34000080 	cbz	w0, 84 <stbi_is_16_bit_from_file+0x84>
  78:	8b20c2e8 	add	x8, x23, w0, sxtw
  7c:	9100e108 	add	x8, x8, #0x38
  80:	14000004 	b	90 <stbi_is_16_bit_from_file+0x90>
  84:	b90033ff 	str	wzr, [sp,#48]
  88:	9100e6e8 	add	x8, x23, #0x39
  8c:	3900e3ff 	strb	wzr, [sp,#56]
  90:	910003e0 	mov	x0, sp
  94:	a90ba3f5 	stp	x21, x8, [sp,#184]
  98:	f9006be8 	str	x8, [sp,#208]
  9c:	94000000 	bl	0 <stbi_is_16_bit_from_file>
  a0:	2a0003f5 	mov	w21, w0
  a4:	aa1303e0 	mov	x0, x19
  a8:	aa1403e1 	mov	x1, x20
  ac:	2a1f03e2 	mov	w2, wzr
  b0:	94000000 	bl	0 <fseek>
  b4:	f94016c8 	ldr	x8, [x22,#40]
  b8:	f85c83a9 	ldur	x9, [x29,#-56]
  bc:	eb09011f 	cmp	x8, x9
  c0:	54000101 	b.ne	e0 <stbi_is_16_bit_from_file+0xe0>
  c4:	2a1503e0 	mov	w0, w21
  c8:	a9517bfd 	ldp	x29, x30, [sp,#272]
  cc:	a9504ff4 	ldp	x20, x19, [sp,#256]
  d0:	a94f57f6 	ldp	x22, x21, [sp,#240]
  d4:	a94e5ffc 	ldp	x28, x23, [sp,#224]
  d8:	910483ff 	add	sp, sp, #0x120
  dc:	d65f03c0 	ret
  e0:	94000000 	bl	0 <__stack_chk_fail>

Disassembly of section .text._ZL16stbi__is_16_mainP13stbi__context:

0000000000000000 <_ZL16stbi__is_16_mainP13stbi__context>:
   0:	d10143ff 	sub	sp, sp, #0x50
   4:	a9034ff4 	stp	x20, x19, [sp,#48]
   8:	a9047bfd 	stp	x29, x30, [sp,#64]
   c:	910103fd 	add	x29, sp, #0x40
  10:	aa0003f3 	mov	x19, x0
  14:	f90007e0 	str	x0, [sp,#8]
  18:	910023e0 	add	x0, sp, #0x8
  1c:	52800041 	mov	w1, #0x2                   	// #2
  20:	2a1f03e2 	mov	w2, wzr
  24:	94000000 	bl	0 <_ZL16stbi__is_16_mainP13stbi__context>
  28:	34000120 	cbz	w0, 4c <_ZL16stbi__is_16_mainP13stbi__context+0x4c>
  2c:	b9402be8 	ldr	w8, [sp,#40]
  30:	7100411f 	cmp	w8, #0x10
  34:	540000c1 	b.ne	4c <_ZL16stbi__is_16_mainP13stbi__context+0x4c>
  38:	52800020 	mov	w0, #0x1                   	// #1
  3c:	a9447bfd 	ldp	x29, x30, [sp,#64]
  40:	a9434ff4 	ldp	x20, x19, [sp,#48]
  44:	910143ff 	add	sp, sp, #0x50
  48:	d65f03c0 	ret
  4c:	f94007e8 	ldr	x8, [sp,#8]
  50:	aa1303e0 	mov	x0, x19
  54:	3ccc8100 	ldur	q0, [x8,#200]
  58:	3c8b8100 	stur	q0, [x8,#184]
  5c:	94000000 	bl	0 <_ZL16stbi__is_16_mainP13stbi__context>
  60:	528a0a68 	mov	w8, #0x5053                	// #20563
  64:	72a70848 	movk	w8, #0x3842, lsl #16
  68:	6b08001f 	cmp	w0, w8
  6c:	540018c1 	b.ne	384 <_ZL16stbi__is_16_mainP13stbi__context+0x384>
  70:	a94ba269 	ldp	x9, x8, [x19,#184]
  74:	eb08013f 	cmp	x9, x8
  78:	54000282 	b.cs	c8 <_ZL16stbi__is_16_mainP13stbi__context+0xc8>
  7c:	9100052b 	add	x11, x9, #0x1
  80:	f9005e6b 	str	x11, [x19,#184]
  84:	3940012a 	ldrb	w10, [x9]
  88:	aa0b03e9 	mov	x9, x11
  8c:	eb08013f 	cmp	x9, x8
  90:	53185d54 	lsl	w20, w10, #8
  94:	54000ae3 	b.cc	1f0 <_ZL16stbi__is_16_mainP13stbi__context+0x1f0>
  98:	b940326a 	ldr	w10, [x19,#48]
  9c:	340003aa 	cbz	w10, 110 <_ZL16stbi__is_16_mainP13stbi__context+0x110>
  a0:	f9400a68 	ldr	x8, [x19,#16]
  a4:	f9401660 	ldr	x0, [x19,#40]
  a8:	b9403662 	ldr	w2, [x19,#52]
  ac:	9100e261 	add	x1, x19, #0x38
  b0:	d63f0100 	blr	x8
  b4:	34000220 	cbz	w0, f8 <_ZL16stbi__is_16_mainP13stbi__context+0xf8>
  b8:	aa1303e8 	mov	x8, x19
  bc:	38438d0a 	ldrb	w10, [x8,#56]!
  c0:	8b20c108 	add	x8, x8, w0, sxtw
  c4:	14000011 	b	108 <_ZL16stbi__is_16_mainP13stbi__context+0x108>
  c8:	b940326a 	ldr	w10, [x19,#48]
  cc:	340008ca 	cbz	w10, 1e4 <_ZL16stbi__is_16_mainP13stbi__context+0x1e4>
  d0:	f9400a68 	ldr	x8, [x19,#16]
  d4:	f9401660 	ldr	x0, [x19,#40]
  d8:	b9403662 	ldr	w2, [x19,#52]
  dc:	9100e261 	add	x1, x19, #0x38
  e0:	d63f0100 	blr	x8
  e4:	34000740 	cbz	w0, 1cc <_ZL16stbi__is_16_mainP13stbi__context+0x1cc>
  e8:	aa1303e8 	mov	x8, x19
  ec:	38438d0a 	ldrb	w10, [x8,#56]!
  f0:	8b20c108 	add	x8, x8, w0, sxtw
  f4:	1400003a 	b	1dc <_ZL16stbi__is_16_mainP13stbi__context+0x1dc>
  f8:	2a1f03ea 	mov	w10, wzr
  fc:	b900327f 	str	wzr, [x19,#48]
 100:	9100e668 	add	x8, x19, #0x39
 104:	3900e27f 	strb	wzr, [x19,#56]
 108:	9100e669 	add	x9, x19, #0x39
 10c:	a90ba269 	stp	x9, x8, [x19,#184]
 110:	2a0a028a 	orr	w10, w20, w10
 114:	7100055f 	cmp	w10, #0x1
 118:	54001361 	b.ne	384 <_ZL16stbi__is_16_mainP13stbi__context+0x384>
 11c:	f9400a6a 	ldr	x10, [x19,#16]
 120:	b400032a 	cbz	x10, 184 <_ZL16stbi__is_16_mainP13stbi__context+0x184>
 124:	4b09010a 	sub	w10, w8, w9
 128:	7100155f 	cmp	w10, #0x5
 12c:	540002cc 	b.gt	184 <_ZL16stbi__is_16_mainP13stbi__context+0x184>
 130:	f9400e69 	ldr	x9, [x19,#24]
 134:	f9401660 	ldr	x0, [x19,#40]
 138:	f9005e68 	str	x8, [x19,#184]
 13c:	528000c8 	mov	w8, #0x6                   	// #6
 140:	4b0a0101 	sub	w1, w8, w10
 144:	d63f0120 	blr	x9
 148:	a94ba269 	ldp	x9, x8, [x19,#184]
 14c:	eb08013f 	cmp	x9, x8
 150:	54000223 	b.cc	194 <_ZL16stbi__is_16_mainP13stbi__context+0x194>
 154:	b940326a 	ldr	w10, [x19,#48]
 158:	3400026a 	cbz	w10, 1a4 <_ZL16stbi__is_16_mainP13stbi__context+0x1a4>
 15c:	f9400a68 	ldr	x8, [x19,#16]
 160:	f9401660 	ldr	x0, [x19,#40]
 164:	b9403662 	ldr	w2, [x19,#52]
 168:	9100e261 	add	x1, x19, #0x38
 16c:	d63f0100 	blr	x8
 170:	34000500 	cbz	w0, 210 <_ZL16stbi__is_16_mainP13stbi__context+0x210>
 174:	aa1303e8 	mov	x8, x19
 178:	38438d0a 	ldrb	w10, [x8,#56]!
 17c:	8b20c108 	add	x8, x8, w0, sxtw
 180:	14000028 	b	220 <_ZL16stbi__is_16_mainP13stbi__context+0x220>
 184:	91001929 	add	x9, x9, #0x6
 188:	f9005e69 	str	x9, [x19,#184]
 18c:	eb08013f 	cmp	x9, x8
 190:	54fffe22 	b.cs	154 <_ZL16stbi__is_16_mainP13stbi__context+0x154>
 194:	9100052b 	add	x11, x9, #0x1
 198:	f9005e6b 	str	x11, [x19,#184]
 19c:	3940012a 	ldrb	w10, [x9]
 1a0:	aa0b03e9 	mov	x9, x11
 1a4:	eb08013f 	cmp	x9, x8
 1a8:	53185d54 	lsl	w20, w10, #8
 1ac:	54000442 	b.cs	234 <_ZL16stbi__is_16_mainP13stbi__context+0x234>
 1b0:	91000528 	add	x8, x9, #0x1
 1b4:	f9005e68 	str	x8, [x19,#184]
 1b8:	39400128 	ldrb	w8, [x9]
 1bc:	2a080288 	orr	w8, w20, w8
 1c0:	7100451f 	cmp	w8, #0x11
 1c4:	54000623 	b.cc	288 <_ZL16stbi__is_16_mainP13stbi__context+0x288>
 1c8:	1400006f 	b	384 <_ZL16stbi__is_16_mainP13stbi__context+0x384>
 1cc:	2a1f03ea 	mov	w10, wzr
 1d0:	b900327f 	str	wzr, [x19,#48]
 1d4:	9100e668 	add	x8, x19, #0x39
 1d8:	3900e27f 	strb	wzr, [x19,#56]
 1dc:	9100e669 	add	x9, x19, #0x39
 1e0:	a90ba269 	stp	x9, x8, [x19,#184]
 1e4:	eb08013f 	cmp	x9, x8
 1e8:	53185d54 	lsl	w20, w10, #8
 1ec:	54fff562 	b.cs	98 <_ZL16stbi__is_16_mainP13stbi__context+0x98>
 1f0:	9100052b 	add	x11, x9, #0x1
 1f4:	f9005e6b 	str	x11, [x19,#184]
 1f8:	3940012a 	ldrb	w10, [x9]
 1fc:	aa0b03e9 	mov	x9, x11
 200:	2a0a028a 	orr	w10, w20, w10
 204:	7100055f 	cmp	w10, #0x1
 208:	54fff8a0 	b.eq	11c <_ZL16stbi__is_16_mainP13stbi__context+0x11c>
 20c:	1400005e 	b	384 <_ZL16stbi__is_16_mainP13stbi__context+0x384>
 210:	2a1f03ea 	mov	w10, wzr
 214:	b900327f 	str	wzr, [x19,#48]
 218:	9100e668 	add	x8, x19, #0x39
 21c:	3900e27f 	strb	wzr, [x19,#56]
 220:	9100e669 	add	x9, x19, #0x39
 224:	a90ba269 	stp	x9, x8, [x19,#184]
 228:	eb08013f 	cmp	x9, x8
 22c:	53185d54 	lsl	w20, w10, #8
 230:	54fffc03 	b.cc	1b0 <_ZL16stbi__is_16_mainP13stbi__context+0x1b0>
 234:	b9403268 	ldr	w8, [x19,#48]
 238:	34000228 	cbz	w8, 27c <_ZL16stbi__is_16_mainP13stbi__context+0x27c>
 23c:	f9400a68 	ldr	x8, [x19,#16]
 240:	f9401660 	ldr	x0, [x19,#40]
 244:	b9403662 	ldr	w2, [x19,#52]
 248:	9100e261 	add	x1, x19, #0x38
 24c:	d63f0100 	blr	x8
 250:	340000a0 	cbz	w0, 264 <_ZL16stbi__is_16_mainP13stbi__context+0x264>
 254:	aa1303e9 	mov	x9, x19
 258:	38438d28 	ldrb	w8, [x9,#56]!
 25c:	8b20c129 	add	x9, x9, w0, sxtw
 260:	14000005 	b	274 <_ZL16stbi__is_16_mainP13stbi__context+0x274>
 264:	2a1f03e8 	mov	w8, wzr
 268:	b900327f 	str	wzr, [x19,#48]
 26c:	9100e669 	add	x9, x19, #0x39
 270:	3900e27f 	strb	wzr, [x19,#56]
 274:	9100e66a 	add	x10, x19, #0x39
 278:	a90ba66a 	stp	x10, x9, [x19,#184]
 27c:	2a080288 	orr	w8, w20, w8
 280:	7100451f 	cmp	w8, #0x11
 284:	54000802 	b.cs	384 <_ZL16stbi__is_16_mainP13stbi__context+0x384>
 288:	aa1303e0 	mov	x0, x19
 28c:	94000000 	bl	0 <_ZL16stbi__is_16_mainP13stbi__context>
 290:	aa1303e0 	mov	x0, x19
 294:	94000000 	bl	0 <_ZL16stbi__is_16_mainP13stbi__context>
 298:	a94ba269 	ldp	x9, x8, [x19,#184]
 29c:	eb08013f 	cmp	x9, x8
 2a0:	54000282 	b.cs	2f0 <_ZL16stbi__is_16_mainP13stbi__context+0x2f0>
 2a4:	9100052b 	add	x11, x9, #0x1
 2a8:	f9005e6b 	str	x11, [x19,#184]
 2ac:	3940012a 	ldrb	w10, [x9]
 2b0:	aa0b03e9 	mov	x9, x11
 2b4:	eb08013f 	cmp	x9, x8
 2b8:	53185d54 	lsl	w20, w10, #8
 2bc:	54000583 	b.cc	36c <_ZL16stbi__is_16_mainP13stbi__context+0x36c>
 2c0:	b9403268 	ldr	w8, [x19,#48]
 2c4:	340003a8 	cbz	w8, 338 <_ZL16stbi__is_16_mainP13stbi__context+0x338>
 2c8:	f9400a68 	ldr	x8, [x19,#16]
 2cc:	f9401660 	ldr	x0, [x19,#40]
 2d0:	b9403662 	ldr	w2, [x19,#52]
 2d4:	9100e261 	add	x1, x19, #0x38
 2d8:	d63f0100 	blr	x8
 2dc:	34000220 	cbz	w0, 320 <_ZL16stbi__is_16_mainP13stbi__context+0x320>
 2e0:	aa1303e9 	mov	x9, x19
 2e4:	38438d28 	ldrb	w8, [x9,#56]!
 2e8:	8b20c129 	add	x9, x9, w0, sxtw
 2ec:	14000011 	b	330 <_ZL16stbi__is_16_mainP13stbi__context+0x330>
 2f0:	b940326a 	ldr	w10, [x19,#48]
 2f4:	3400036a 	cbz	w10, 360 <_ZL16stbi__is_16_mainP13stbi__context+0x360>
 2f8:	f9400a68 	ldr	x8, [x19,#16]
 2fc:	f9401660 	ldr	x0, [x19,#40]
 300:	b9403662 	ldr	w2, [x19,#52]
 304:	9100e261 	add	x1, x19, #0x38
 308:	d63f0100 	blr	x8
 30c:	340001e0 	cbz	w0, 348 <_ZL16stbi__is_16_mainP13stbi__context+0x348>
 310:	aa1303e8 	mov	x8, x19
 314:	38438d0a 	ldrb	w10, [x8,#56]!
 318:	8b20c108 	add	x8, x8, w0, sxtw
 31c:	1400000f 	b	358 <_ZL16stbi__is_16_mainP13stbi__context+0x358>
 320:	2a1f03e8 	mov	w8, wzr
 324:	b900327f 	str	wzr, [x19,#48]
 328:	9100e669 	add	x9, x19, #0x39
 32c:	3900e27f 	strb	wzr, [x19,#56]
 330:	9100e66a 	add	x10, x19, #0x39
 334:	a90ba66a 	stp	x10, x9, [x19,#184]
 338:	2a080288 	orr	w8, w20, w8
 33c:	7100411f 	cmp	w8, #0x10
 340:	54ffe7c0 	b.eq	38 <_ZL16stbi__is_16_mainP13stbi__context+0x38>
 344:	14000010 	b	384 <_ZL16stbi__is_16_mainP13stbi__context+0x384>
 348:	2a1f03ea 	mov	w10, wzr
 34c:	b900327f 	str	wzr, [x19,#48]
 350:	9100e668 	add	x8, x19, #0x39
 354:	3900e27f 	strb	wzr, [x19,#56]
 358:	9100e669 	add	x9, x19, #0x39
 35c:	a90ba269 	stp	x9, x8, [x19,#184]
 360:	eb08013f 	cmp	x9, x8
 364:	53185d54 	lsl	w20, w10, #8
 368:	54fffac2 	b.cs	2c0 <_ZL16stbi__is_16_mainP13stbi__context+0x2c0>
 36c:	91000528 	add	x8, x9, #0x1
 370:	f9005e68 	str	x8, [x19,#184]
 374:	39400128 	ldrb	w8, [x9]
 378:	2a080288 	orr	w8, w20, w8
 37c:	7100411f 	cmp	w8, #0x10
 380:	54ffe5c0 	b.eq	38 <_ZL16stbi__is_16_mainP13stbi__context+0x38>
 384:	3ccc8260 	ldur	q0, [x19,#200]
 388:	2a1f03e0 	mov	w0, wzr
 38c:	3c8b8260 	stur	q0, [x19,#184]
 390:	a9447bfd 	ldp	x29, x30, [sp,#64]
 394:	a9434ff4 	ldp	x20, x19, [sp,#48]
 398:	910143ff 	add	sp, sp, #0x50
 39c:	d65f03c0 	ret

Disassembly of section .text.stbi_info_from_memory:

0000000000000000 <stbi_info_from_memory>:
   0:	d10403ff 	sub	sp, sp, #0x100
   4:	f90073f3 	str	x19, [sp,#224]
   8:	a90f7bfd 	stp	x29, x30, [sp,#240]
   c:	9103c3fd 	add	x29, sp, #0xf0
  10:	d53bd053 	mrs	x19, tpidr_el0
  14:	f9401668 	ldr	x8, [x19,#40]
  18:	8b21c009 	add	x9, x0, w1, sxtw
  1c:	aa0203e1 	mov	x1, x2
  20:	aa0303e2 	mov	x2, x3
  24:	f81e83a8 	stur	x8, [x29,#-24]
  28:	a90ca7e0 	stp	x0, x9, [sp,#200]
  2c:	a90ba7e0 	stp	x0, x9, [sp,#184]
  30:	910003e0 	mov	x0, sp
  34:	aa0403e3 	mov	x3, x4
  38:	f9000bff 	str	xzr, [sp,#16]
  3c:	b90033ff 	str	wzr, [sp,#48]
  40:	94000000 	bl	0 <stbi_info_from_memory>
  44:	f9401668 	ldr	x8, [x19,#40]
  48:	f85e83a9 	ldur	x9, [x29,#-24]
  4c:	eb09011f 	cmp	x8, x9
  50:	540000a1 	b.ne	64 <stbi_info_from_memory+0x64>
  54:	a94f7bfd 	ldp	x29, x30, [sp,#240]
  58:	f94073f3 	ldr	x19, [sp,#224]
  5c:	910403ff 	add	sp, sp, #0x100
  60:	d65f03c0 	ret
  64:	94000000 	bl	0 <__stack_chk_fail>

Disassembly of section .text.stbi_info_from_callbacks:

0000000000000000 <stbi_info_from_callbacks>:
   0:	d104c3ff 	sub	sp, sp, #0x130
   4:	f90073fc 	str	x28, [sp,#224]
   8:	a90f5ff8 	stp	x24, x23, [sp,#240]
   c:	a91057f6 	stp	x22, x21, [sp,#256]
  10:	a9114ff4 	stp	x20, x19, [sp,#272]
  14:	a9127bfd 	stp	x29, x30, [sp,#288]
  18:	910483fd 	add	x29, sp, #0x120
  1c:	d53bd057 	mrs	x23, tpidr_el0
  20:	f94016e8 	ldr	x8, [x23,#40]
  24:	910003f8 	mov	x24, sp
  28:	9100e316 	add	x22, x24, #0x38
  2c:	aa0203f5 	mov	x21, x2
  30:	f81b83a8 	stur	x8, [x29,#-72]
  34:	3dc00000 	ldr	q0, [x0]
  38:	90000008 	adrp	x8, 0 <stbi_info_from_callbacks>
  3c:	f9400809 	ldr	x9, [x0,#16]
  40:	fd400101 	ldr	d1, [x8]
  44:	3d8007e0 	str	q0, [sp,#16]
  48:	f9400be8 	ldr	x8, [sp,#16]
  4c:	a90207e9 	stp	x9, x1, [sp,#32]
  50:	52801002 	mov	w2, #0x80                  	// #128
  54:	aa0103e0 	mov	x0, x1
  58:	aa1603e1 	mov	x1, x22
  5c:	aa0403f3 	mov	x19, x4
  60:	aa0303f4 	mov	x20, x3
  64:	fd001be1 	str	d1, [sp,#48]
  68:	f90067f6 	str	x22, [sp,#200]
  6c:	d63f0100 	blr	x8
  70:	34000080 	cbz	w0, 80 <stbi_info_from_callbacks+0x80>
  74:	8b20c308 	add	x8, x24, w0, sxtw
  78:	9100e108 	add	x8, x8, #0x38
  7c:	14000004 	b	8c <stbi_info_from_callbacks+0x8c>
  80:	b90033ff 	str	wzr, [sp,#48]
  84:	9100e708 	add	x8, x24, #0x39
  88:	3900e3ff 	strb	wzr, [sp,#56]
  8c:	910003e0 	mov	x0, sp
  90:	aa1503e1 	mov	x1, x21
  94:	aa1403e2 	mov	x2, x20
  98:	aa1303e3 	mov	x3, x19
  9c:	a90ba3f6 	stp	x22, x8, [sp,#184]
  a0:	f9006be8 	str	x8, [sp,#208]
  a4:	94000000 	bl	0 <stbi_info_from_callbacks>
  a8:	f94016e8 	ldr	x8, [x23,#40]
  ac:	f85b83a9 	ldur	x9, [x29,#-72]
  b0:	eb09011f 	cmp	x8, x9
  b4:	54000101 	b.ne	d4 <stbi_info_from_callbacks+0xd4>
  b8:	a9527bfd 	ldp	x29, x30, [sp,#288]
  bc:	a9514ff4 	ldp	x20, x19, [sp,#272]
  c0:	a95057f6 	ldp	x22, x21, [sp,#256]
  c4:	a94f5ff8 	ldp	x24, x23, [sp,#240]
  c8:	f94073fc 	ldr	x28, [sp,#224]
  cc:	9104c3ff 	add	sp, sp, #0x130
  d0:	d65f03c0 	ret
  d4:	94000000 	bl	0 <__stack_chk_fail>

Disassembly of section .text.stbi_is_16_bit_from_memory:

0000000000000000 <stbi_is_16_bit_from_memory>:
   0:	d10403ff 	sub	sp, sp, #0x100
   4:	f90073f3 	str	x19, [sp,#224]
   8:	a90f7bfd 	stp	x29, x30, [sp,#240]
   c:	9103c3fd 	add	x29, sp, #0xf0
  10:	d53bd053 	mrs	x19, tpidr_el0
  14:	f9401668 	ldr	x8, [x19,#40]
  18:	8b21c009 	add	x9, x0, w1, sxtw
  1c:	f81e83a8 	stur	x8, [x29,#-24]
  20:	a90ca7e0 	stp	x0, x9, [sp,#200]
  24:	a90ba7e0 	stp	x0, x9, [sp,#184]
  28:	910003e0 	mov	x0, sp
  2c:	f9000bff 	str	xzr, [sp,#16]
  30:	b90033ff 	str	wzr, [sp,#48]
  34:	94000000 	bl	0 <stbi_is_16_bit_from_memory>
  38:	f9401668 	ldr	x8, [x19,#40]
  3c:	f85e83a9 	ldur	x9, [x29,#-24]
  40:	eb09011f 	cmp	x8, x9
  44:	540000a1 	b.ne	58 <stbi_is_16_bit_from_memory+0x58>
  48:	a94f7bfd 	ldp	x29, x30, [sp,#240]
  4c:	f94073f3 	ldr	x19, [sp,#224]
  50:	910403ff 	add	sp, sp, #0x100
  54:	d65f03c0 	ret
  58:	94000000 	bl	0 <__stack_chk_fail>

Disassembly of section .text.stbi_is_16_bit_from_callbacks:

0000000000000000 <stbi_is_16_bit_from_callbacks>:
   0:	d10443ff 	sub	sp, sp, #0x110
   4:	a90e57fc 	stp	x28, x21, [sp,#224]
   8:	a90f4ff4 	stp	x20, x19, [sp,#240]
   c:	a9107bfd 	stp	x29, x30, [sp,#256]
  10:	910403fd 	add	x29, sp, #0x100
  14:	d53bd054 	mrs	x20, tpidr_el0
  18:	f9401688 	ldr	x8, [x20,#40]
  1c:	910003f5 	mov	x21, sp
  20:	9100e2b3 	add	x19, x21, #0x38
  24:	52801002 	mov	w2, #0x80                  	// #128
  28:	f81d83a8 	stur	x8, [x29,#-40]
  2c:	3dc00000 	ldr	q0, [x0]
  30:	90000008 	adrp	x8, 0 <stbi_is_16_bit_from_callbacks>
  34:	f9400809 	ldr	x9, [x0,#16]
  38:	fd400101 	ldr	d1, [x8]
  3c:	3d8007e0 	str	q0, [sp,#16]
  40:	f9400be8 	ldr	x8, [sp,#16]
  44:	a90207e9 	stp	x9, x1, [sp,#32]
  48:	aa0103e0 	mov	x0, x1
  4c:	aa1303e1 	mov	x1, x19
  50:	fd001be1 	str	d1, [sp,#48]
  54:	f90067f3 	str	x19, [sp,#200]
  58:	d63f0100 	blr	x8
  5c:	34000080 	cbz	w0, 6c <stbi_is_16_bit_from_callbacks+0x6c>
  60:	8b20c2a8 	add	x8, x21, w0, sxtw
  64:	9100e108 	add	x8, x8, #0x38
  68:	14000004 	b	78 <stbi_is_16_bit_from_callbacks+0x78>
  6c:	b90033ff 	str	wzr, [sp,#48]
  70:	9100e6a8 	add	x8, x21, #0x39
  74:	3900e3ff 	strb	wzr, [sp,#56]
  78:	910003e0 	mov	x0, sp
  7c:	a90ba3f3 	stp	x19, x8, [sp,#184]
  80:	f9006be8 	str	x8, [sp,#208]
  84:	94000000 	bl	0 <stbi_is_16_bit_from_callbacks>
  88:	f9401688 	ldr	x8, [x20,#40]
  8c:	f85d83a9 	ldur	x9, [x29,#-40]
  90:	eb09011f 	cmp	x8, x9
  94:	540000c1 	b.ne	ac <stbi_is_16_bit_from_callbacks+0xac>
  98:	a9507bfd 	ldp	x29, x30, [sp,#256]
  9c:	a94f4ff4 	ldp	x20, x19, [sp,#240]
  a0:	a94e57fc 	ldp	x28, x21, [sp,#224]
  a4:	910443ff 	add	sp, sp, #0x110
  a8:	d65f03c0 	ret
  ac:	94000000 	bl	0 <__stack_chk_fail>

Disassembly of section .text.stbi_flip_vertically_on_write:

0000000000000000 <stbi_flip_vertically_on_write>:
   0:	90000008 	adrp	x8, 0 <stbi_flip_vertically_on_write>
   4:	f9400108 	ldr	x8, [x8]
   8:	b9000100 	str	w0, [x8]
   c:	d65f03c0 	ret

Disassembly of section .text.stbi_write_bmp_to_func:

0000000000000000 <stbi_write_bmp_to_func>:
   0:	d10303ff 	sub	sp, sp, #0xc0
   4:	a90b7bfd 	stp	x29, x30, [sp,#176]
   8:	9102c3fd 	add	x29, sp, #0xb0
   c:	5280030a 	mov	w10, #0x18                  	// #24
  10:	12000448 	and	w8, w2, #0x3
  14:	0b020449 	add	w9, w2, w2, lsl #1
  18:	b9006bea 	str	w10, [sp,#104]
  1c:	5280050a 	mov	w10, #0x28                  	// #40
  20:	0b090109 	add	w9, w8, w9
  24:	b9000be8 	str	w8, [sp,#8]
  28:	52800028 	mov	w8, #0x1                   	// #1
  2c:	b9004bea 	str	w10, [sp,#72]
  30:	528009aa 	mov	w10, #0x4d                  	// #77
  34:	1b037d29 	mul	w9, w9, w3
  38:	b90063e8 	str	w8, [sp,#96]
  3c:	528006c8 	mov	w8, #0x36                  	// #54
  40:	b90023ea 	str	w10, [sp,#32]
  44:	9000000a 	adrp	x10, 0 <stbi_write_bmp_to_func>
  48:	aa0503e7 	mov	x7, x5
  4c:	2a0403e5 	mov	w5, w4
  50:	2a0303e4 	mov	w4, w3
  54:	a93f07a0 	stp	x0, x1, [x29,#-16]
  58:	1100d929 	add	w9, w9, #0x36
  5c:	b9005be3 	str	w3, [sp,#88]
  60:	b90043e8 	str	w8, [sp,#64]
  64:	52800848 	mov	w8, #0x42                  	// #66
  68:	9100014a 	add	x10, x10, #0x0
  6c:	d10043a0 	sub	x0, x29, #0x10
  70:	52800026 	mov	w6, #0x1                   	// #1
  74:	2a0203e3 	mov	w3, w2
  78:	b9009bff 	str	wzr, [sp,#152]
  7c:	b90093ff 	str	wzr, [sp,#144]
  80:	b9008bff 	str	wzr, [sp,#136]
  84:	b90083ff 	str	wzr, [sp,#128]
  88:	b9007bff 	str	wzr, [sp,#120]
  8c:	b90073ff 	str	wzr, [sp,#112]
  90:	b90053e2 	str	w2, [sp,#80]
  94:	b9003bff 	str	wzr, [sp,#56]
  98:	b90033ff 	str	wzr, [sp,#48]
  9c:	b90003ff 	str	wzr, [sp]
  a0:	b9001be8 	str	w8, [sp,#24]
  a4:	f9000bea 	str	x10, [sp,#16]
  a8:	b9002be9 	str	w9, [sp,#40]
  ac:	94000000 	bl	0 <stbi_write_bmp_to_func>
  b0:	a94b7bfd 	ldp	x29, x30, [sp,#176]
  b4:	910303ff 	add	sp, sp, #0xc0
  b8:	d65f03c0 	ret

Disassembly of section .text.stbi_write_bmp:

0000000000000000 <stbi_write_bmp>:
   0:	d103c3ff 	sub	sp, sp, #0xf0
   4:	f9005bf7 	str	x23, [sp,#176]
   8:	a90c57f6 	stp	x22, x21, [sp,#192]
   c:	a90d4ff4 	stp	x20, x19, [sp,#208]
  10:	a90e7bfd 	stp	x29, x30, [sp,#224]
  14:	910383fd 	add	x29, sp, #0xe0
  18:	2a0103f6 	mov	w22, w1
  1c:	90000001 	adrp	x1, 0 <stbi_write_bmp>
  20:	91000021 	add	x1, x1, #0x0
  24:	aa0403f3 	mov	x19, x4
  28:	2a0303f4 	mov	w20, w3
  2c:	2a0203f5 	mov	w21, w2
  30:	94000000 	bl	0 <fopen>
  34:	90000008 	adrp	x8, 0 <stbi_write_bmp>
  38:	91000108 	add	x8, x8, #0x0
  3c:	a93c03a8 	stp	x8, x0, [x29,#-64]
  40:	b40005c0 	cbz	x0, f8 <stbi_write_bmp+0xf8>
  44:	5280030a 	mov	w10, #0x18                  	// #24
  48:	120006c8 	and	w8, w22, #0x3
  4c:	0b1606c9 	add	w9, w22, w22, lsl #1
  50:	b9006bea 	str	w10, [sp,#104]
  54:	5280050a 	mov	w10, #0x28                  	// #40
  58:	0b090109 	add	w9, w8, w9
  5c:	b9000be8 	str	w8, [sp,#8]
  60:	52800028 	mov	w8, #0x1                   	// #1
  64:	b9004bea 	str	w10, [sp,#72]
  68:	528009aa 	mov	w10, #0x4d                  	// #77
  6c:	1b157d29 	mul	w9, w9, w21
  70:	b90063e8 	str	w8, [sp,#96]
  74:	528006c8 	mov	w8, #0x36                  	// #54
  78:	b90023ea 	str	w10, [sp,#32]
  7c:	9000000a 	adrp	x10, 0 <stbi_write_bmp>
  80:	aa0003f7 	mov	x23, x0
  84:	1100d929 	add	w9, w9, #0x36
  88:	b90043e8 	str	w8, [sp,#64]
  8c:	52800848 	mov	w8, #0x42                  	// #66
  90:	9100014a 	add	x10, x10, #0x0
  94:	d10103a0 	sub	x0, x29, #0x40
  98:	52800026 	mov	w6, #0x1                   	// #1
  9c:	2a1603e3 	mov	w3, w22
  a0:	2a1503e4 	mov	w4, w21
  a4:	2a1403e5 	mov	w5, w20
  a8:	aa1303e7 	mov	x7, x19
  ac:	b9009bff 	str	wzr, [sp,#152]
  b0:	b90093ff 	str	wzr, [sp,#144]
  b4:	b9008bff 	str	wzr, [sp,#136]
  b8:	b90083ff 	str	wzr, [sp,#128]
  bc:	b9007bff 	str	wzr, [sp,#120]
  c0:	b90073ff 	str	wzr, [sp,#112]
  c4:	b9005bf5 	str	w21, [sp,#88]
  c8:	b90053f6 	str	w22, [sp,#80]
  cc:	b9003bff 	str	wzr, [sp,#56]
  d0:	b90033ff 	str	wzr, [sp,#48]
  d4:	b90003ff 	str	wzr, [sp]
  d8:	b9001be8 	str	w8, [sp,#24]
  dc:	f9000bea 	str	x10, [sp,#16]
  e0:	b9002be9 	str	w9, [sp,#40]
  e4:	94000000 	bl	0 <stbi_write_bmp>
  e8:	2a0003f3 	mov	w19, w0
  ec:	aa1703e0 	mov	x0, x23
  f0:	94000000 	bl	0 <fclose>
  f4:	14000002 	b	fc <stbi_write_bmp+0xfc>
  f8:	2a1f03f3 	mov	w19, wzr
  fc:	2a1303e0 	mov	w0, w19
 100:	a94e7bfd 	ldp	x29, x30, [sp,#224]
 104:	a94d4ff4 	ldp	x20, x19, [sp,#208]
 108:	a94c57f6 	ldp	x22, x21, [sp,#192]
 10c:	f9405bf7 	ldr	x23, [sp,#176]
 110:	9103c3ff 	add	sp, sp, #0xf0
 114:	d65f03c0 	ret

Disassembly of section .text.stbi_write_tga_to_func:

0000000000000000 <stbi_write_tga_to_func>:
   0:	d10083ff 	sub	sp, sp, #0x20
   4:	a9017bfd 	stp	x29, x30, [sp,#16]
   8:	910043fd 	add	x29, sp, #0x10
   c:	a90007e0 	stp	x0, x1, [sp]
  10:	910003e0 	mov	x0, sp
  14:	2a0203e1 	mov	w1, w2
  18:	2a0303e2 	mov	w2, w3
  1c:	2a0403e3 	mov	w3, w4
  20:	aa0503e4 	mov	x4, x5
  24:	94000000 	bl	0 <stbi_write_tga_to_func>
  28:	a9417bfd 	ldp	x29, x30, [sp,#16]
  2c:	910083ff 	add	sp, sp, #0x20
  30:	d65f03c0 	ret

Disassembly of section .text._ZL19stbi_write_tga_coreP19stbi__write_contextiiiPv:

0000000000000000 <_ZL19stbi_write_tga_coreP19stbi__write_contextiiiPv>:
   0:	d10583ff 	sub	sp, sp, #0x160
   4:	a9106ffc 	stp	x28, x27, [sp,#256]
   8:	a91167fa 	stp	x26, x25, [sp,#272]
   c:	a9125ff8 	stp	x24, x23, [sp,#288]
  10:	a91357f6 	stp	x22, x21, [sp,#304]
  14:	a9144ff4 	stp	x20, x19, [sp,#320]
  18:	a9157bfd 	stp	x29, x30, [sp,#336]
  1c:	910543fd 	add	x29, sp, #0x150
  20:	f9004be4 	str	x4, [sp,#144]
  24:	d53bd053 	mrs	x19, tpidr_el0
  28:	7100087f 	cmp	w3, #0x2
  2c:	f9401668 	ldr	x8, [x19,#40]
  30:	1a9f17e9 	cset	w9, eq
  34:	7100107f 	cmp	w3, #0x4
  38:	1a9f17ea 	cset	w10, eq
  3c:	2a0a0137 	orr	w23, w9, w10
  40:	f81a03a8 	stur	x8, [x29,#-96]
  44:	4b170068 	sub	w8, w3, w23
  48:	52800049 	mov	w9, #0x2                   	// #2
  4c:	7100091f 	cmp	w8, #0x2
  50:	2a01004a 	orr	w10, w2, w1
  54:	1a89a528 	cinc	w8, w9, lt
  58:	37f817aa 	tbnz	w10, #31, 34c <_ZL19stbi_write_tga_coreP19stbi__write_contextiiiPv+0x34c>
  5c:	90000009 	adrp	x9, 0 <_ZL19stbi_write_tga_coreP19stbi__write_contextiiiPv>
  60:	f9400129 	ldr	x9, [x9]
  64:	2a0303f4 	mov	w20, w3
  68:	2a0203f8 	mov	w24, w2
  6c:	2a0103fc 	mov	w28, w1
  70:	b9400129 	ldr	w9, [x9]
  74:	aa0003f6 	mov	x22, x0
  78:	34001769 	cbz	w9, 364 <_ZL19stbi_write_tga_coreP19stbi__write_contextiiiPv+0x364>
  7c:	321d0104 	orr	w4, w8, #0x8
  80:	531d7288 	lsl	w8, w20, #3
  84:	531d72e9 	lsl	w9, w23, #3
  88:	aa1603e0 	mov	x0, x22
  8c:	2a1f03e2 	mov	w2, wzr
  90:	2a1f03e3 	mov	w3, wzr
  94:	2a1f03e5 	mov	w5, wzr
  98:	2a1f03e6 	mov	w6, wzr
  9c:	2a1f03e7 	mov	w7, wzr
  a0:	b9002be9 	str	w9, [sp,#40]
  a4:	b90023e8 	str	w8, [sp,#32]
  a8:	b9001bf8 	str	w24, [sp,#24]
  ac:	b90013fc 	str	w28, [sp,#16]
  b0:	b9000bff 	str	wzr, [sp,#8]
  b4:	b90003ff 	str	wzr, [sp]
  b8:	94000000 	bl	0 <_ZL19stbi_write_tga_coreP19stbi__write_contextiiiPv>
  bc:	90000008 	adrp	x8, 0 <_ZL19stbi_write_tga_coreP19stbi__write_contextiiiPv>
  c0:	f9400108 	ldr	x8, [x8]
  c4:	b9400109 	ldr	w9, [x8]
  c8:	51000708 	sub	w8, w24, #0x1
  cc:	7100013f 	cmp	w9, #0x0
  d0:	1a9f0108 	csel	w8, w8, wzr, eq
  d4:	5a9f130a 	csinv	w10, w24, wzr, ne
  d8:	6b0a011f 	cmp	w8, w10
  dc:	b815c3aa 	stur	w10, [x29,#-164]
  e0:	54001820 	b.eq	3e4 <_ZL19stbi_write_tga_coreP19stbi__write_contextiiiPv+0x3e4>
  e4:	5100078b 	sub	w11, w28, #0x1
  e8:	7100013f 	cmp	w9, #0x0
  ec:	92800009 	mov	x9, #0xffffffffffffffff    	// #-1
  f0:	b818c3ab 	stur	w11, [x29,#-116]
  f4:	93407f8b 	sxtw	x11, w28
  f8:	1b1c7e8a 	mul	w10, w20, w28
  fc:	f81903ab 	stur	x11, [x29,#-112]
 100:	93407d0b 	sxtw	x11, w8
 104:	1b147d08 	mul	w8, w8, w20
 108:	da890529 	cneg	x9, x9, ne
 10c:	93407e98 	sxtw	x24, w20
 110:	1b1c7d08 	mul	w8, w8, w28
 114:	f90053e9 	str	x9, [sp,#160]
 118:	1b097d49 	mul	w9, w10, w9
 11c:	f90043f3 	str	x19, [sp,#128]
 120:	f81683ab 	stur	x11, [x29,#-152]
 124:	b9008fea 	str	w10, [sp,#140]
 128:	b9009fe9 	str	w9, [sp,#156]
 12c:	f81703bc 	stur	x28, [x29,#-144]
 130:	7100079f 	cmp	w28, #0x1
 134:	93407d08 	sxtw	x8, w8
 138:	f81603a8 	stur	x8, [x29,#-160]
 13c:	540001ea 	b.ge	178 <_ZL19stbi_write_tga_coreP19stbi__write_contextiiiPv+0x178>
 140:	f85683a9 	ldur	x9, [x29,#-152]
 144:	f94053e8 	ldr	x8, [sp,#160]
 148:	8b080129 	add	x9, x9, x8
 14c:	b855c3a8 	ldur	w8, [x29,#-164]
 150:	f81683a9 	stur	x9, [x29,#-152]
 154:	6b09011f 	cmp	w8, w9
 158:	b9409fe8 	ldr	w8, [sp,#156]
 15c:	f85603a9 	ldur	x9, [x29,#-160]
 160:	0b080128 	add	w8, w9, w8
 164:	540013e0 	b.eq	3e0 <_ZL19stbi_write_tga_coreP19stbi__write_contextiiiPv+0x3e0>
 168:	7100079f 	cmp	w28, #0x1
 16c:	93407d08 	sxtw	x8, w8
 170:	f81603a8 	stur	x8, [x29,#-160]
 174:	54fffe6b 	b.lt	140 <_ZL19stbi_write_tga_coreP19stbi__write_contextiiiPv+0x140>
 178:	f9404bea 	ldr	x10, [sp,#144]
 17c:	a9762fa9 	ldp	x9, x11, [x29,#-160]
 180:	2a1f03e8 	mov	w8, wzr
 184:	8b090149 	add	x9, x10, x9
 188:	f81803a9 	stur	x9, [x29,#-128]
 18c:	b9408fe9 	ldr	w9, [sp,#140]
 190:	1b0b7d29 	mul	w9, w9, w11
 194:	8b29c149 	add	x9, x10, w9, sxtw
 198:	f81783a9 	stur	x9, [x29,#-136]
 19c:	14000011 	b	1e0 <_ZL19stbi_write_tga_coreP19stbi__write_contextiiiPv+0x1e0>
 1a0:	52800053 	mov	w19, #0x2                   	// #2
 1a4:	1101fe68 	add	w8, w19, #0x7f
 1a8:	381983a8 	sturb	w8, [x29,#-104]
 1ac:	a94002c8 	ldp	x8, x0, [x22]
 1b0:	d101a3a1 	sub	x1, x29, #0x68
 1b4:	52800022 	mov	w2, #0x1                   	// #1
 1b8:	d63f0100 	blr	x8
 1bc:	aa1603e0 	mov	x0, x22
 1c0:	2a1403e1 	mov	w1, w20
 1c4:	2a1703e2 	mov	w2, w23
 1c8:	2a1f03e3 	mov	w3, wzr
 1cc:	aa1903e4 	mov	x4, x25
 1d0:	94000000 	bl	0 <_ZL19stbi_write_tga_coreP19stbi__write_contextiiiPv>
 1d4:	0b1b0268 	add	w8, w19, w27
 1d8:	6b1c011f 	cmp	w8, w28
 1dc:	54fffb2a 	b.ge	140 <_ZL19stbi_write_tga_coreP19stbi__write_contextiiiPv+0x140>
 1e0:	b858c3a9 	ldur	w9, [x29,#-116]
 1e4:	93407d1b 	sxtw	x27, w8
 1e8:	9b187f7a 	mul	x26, x27, x24
 1ec:	6b09011f 	cmp	w8, w9
 1f0:	5400046a 	b.ge	27c <_ZL19stbi_write_tga_coreP19stbi__write_contextiiiPv+0x27c>
 1f4:	f85783a9 	ldur	x9, [x29,#-136]
 1f8:	91000768 	add	x8, x27, #0x1
 1fc:	aa1803e2 	mov	x2, x24
 200:	8b1a0139 	add	x25, x9, x26
 204:	9b182501 	madd	x1, x8, x24, x9
 208:	aa1903e0 	mov	x0, x25
 20c:	94000000 	bl	0 <memcmp>
 210:	11000b68 	add	w8, w27, #0x2
 214:	6b1c011f 	cmp	w8, w28
 218:	34000360 	cbz	w0, 284 <_ZL19stbi_write_tga_coreP19stbi__write_contextiiiPv+0x284>
 21c:	5400062a 	b.ge	2e0 <_ZL19stbi_write_tga_coreP19stbi__write_contextiiiPv+0x2e0>
 220:	f85803bc 	ldur	x28, [x29,#-128]
 224:	93407d08 	sxtw	x8, w8
 228:	aa1f03f3 	mov	x19, xzr
 22c:	9b087f19 	mul	x25, x24, x8
 230:	91000515 	add	x21, x8, #0x1
 234:	8b1a0380 	add	x0, x28, x26
 238:	8b190381 	add	x1, x28, x25
 23c:	aa1803e2 	mov	x2, x24
 240:	94000000 	bl	0 <memcmp>
 244:	34000520 	cbz	w0, 2e8 <_ZL19stbi_write_tga_coreP19stbi__write_contextiiiPv+0x2e8>
 248:	f85903a9 	ldur	x9, [x29,#-112]
 24c:	8b1302a8 	add	x8, x21, x19
 250:	eb09011f 	cmp	x8, x9
 254:	91000668 	add	x8, x19, #0x1
 258:	540000ca 	b.ge	270 <_ZL19stbi_write_tga_coreP19stbi__write_contextiiiPv+0x270>
 25c:	11000e69 	add	w9, w19, #0x3
 260:	7102013f 	cmp	w9, #0x80
 264:	8b18039c 	add	x28, x28, x24
 268:	aa0803f3 	mov	x19, x8
 26c:	54fffe43 	b.cc	234 <_ZL19stbi_write_tga_coreP19stbi__write_contextiiiPv+0x234>
 270:	f85703bc 	ldur	x28, [x29,#-144]
 274:	11000913 	add	w19, w8, #0x2
 278:	1400001e 	b	2f0 <_ZL19stbi_write_tga_coreP19stbi__write_contextiiiPv+0x2f0>
 27c:	52800033 	mov	w19, #0x1                   	// #1
 280:	1400001c 	b	2f0 <_ZL19stbi_write_tga_coreP19stbi__write_contextiiiPv+0x2f0>
 284:	54fff8ea 	b.ge	1a0 <_ZL19stbi_write_tga_coreP19stbi__write_contextiiiPv+0x1a0>
 288:	f85803a9 	ldur	x9, [x29,#-128]
 28c:	93407d08 	sxtw	x8, w8
 290:	aa1f03f3 	mov	x19, xzr
 294:	91000515 	add	x21, x8, #0x1
 298:	9b08271a 	madd	x26, x24, x8, x9
 29c:	aa1903e0 	mov	x0, x25
 2a0:	aa1a03e1 	mov	x1, x26
 2a4:	aa1803e2 	mov	x2, x24
 2a8:	94000000 	bl	0 <memcmp>
 2ac:	350004c0 	cbnz	w0, 344 <_ZL19stbi_write_tga_coreP19stbi__write_contextiiiPv+0x344>
 2b0:	f85903a9 	ldur	x9, [x29,#-112]
 2b4:	8b1302a8 	add	x8, x21, x19
 2b8:	eb09011f 	cmp	x8, x9
 2bc:	91000668 	add	x8, x19, #0x1
 2c0:	540000ca 	b.ge	2d8 <_ZL19stbi_write_tga_coreP19stbi__write_contextiiiPv+0x2d8>
 2c4:	11000e69 	add	w9, w19, #0x3
 2c8:	7102013f 	cmp	w9, #0x80
 2cc:	8b18035a 	add	x26, x26, x24
 2d0:	aa0803f3 	mov	x19, x8
 2d4:	54fffe43 	b.cc	29c <_ZL19stbi_write_tga_coreP19stbi__write_contextiiiPv+0x29c>
 2d8:	11000913 	add	w19, w8, #0x2
 2dc:	17ffffb2 	b	1a4 <_ZL19stbi_write_tga_coreP19stbi__write_contextiiiPv+0x1a4>
 2e0:	52800053 	mov	w19, #0x2                   	// #2
 2e4:	14000003 	b	2f0 <_ZL19stbi_write_tga_coreP19stbi__write_contextiiiPv+0x2f0>
 2e8:	f85703bc 	ldur	x28, [x29,#-144]
 2ec:	11000673 	add	w19, w19, #0x1
 2f0:	71000668 	subs	w8, w19, #0x1
 2f4:	3819c3a8 	sturb	w8, [x29,#-100]
 2f8:	a94002c8 	ldp	x8, x0, [x22]
 2fc:	d10193a1 	sub	x1, x29, #0x64
 300:	52800022 	mov	w2, #0x1                   	// #1
 304:	d63f0100 	blr	x8
 308:	7100067f 	cmp	w19, #0x1
 30c:	54fff64b 	b.lt	1d4 <_ZL19stbi_write_tga_coreP19stbi__write_contextiiiPv+0x1d4>
 310:	f85803a8 	ldur	x8, [x29,#-128]
 314:	2a1303f5 	mov	w21, w19
 318:	8b1a0119 	add	x25, x8, x26
 31c:	aa1603e0 	mov	x0, x22
 320:	2a1403e1 	mov	w1, w20
 324:	2a1703e2 	mov	w2, w23
 328:	2a1f03e3 	mov	w3, wzr
 32c:	aa1903e4 	mov	x4, x25
 330:	94000000 	bl	0 <_ZL19stbi_write_tga_coreP19stbi__write_contextiiiPv>
 334:	f10006b5 	subs	x21, x21, #0x1
 338:	8b180339 	add	x25, x25, x24
 33c:	54ffff01 	b.ne	31c <_ZL19stbi_write_tga_coreP19stbi__write_contextiiiPv+0x31c>
 340:	17ffffa5 	b	1d4 <_ZL19stbi_write_tga_coreP19stbi__write_contextiiiPv+0x1d4>
 344:	11000a73 	add	w19, w19, #0x2
 348:	17ffff97 	b	1a4 <_ZL19stbi_write_tga_coreP19stbi__write_contextiiiPv+0x1a4>
 34c:	2a1f03e0 	mov	w0, wzr
 350:	f9401668 	ldr	x8, [x19,#40]
 354:	f85a03a9 	ldur	x9, [x29,#-96]
 358:	eb09011f 	cmp	x8, x9
 35c:	540004e0 	b.eq	3f8 <_ZL19stbi_write_tga_coreP19stbi__write_contextiiiPv+0x3f8>
 360:	94000000 	bl	0 <__stack_chk_fail>
 364:	f9404be7 	ldr	x7, [sp,#144]
 368:	b9002be8 	str	w8, [sp,#40]
 36c:	90000008 	adrp	x8, 0 <_ZL19stbi_write_tga_coreP19stbi__write_contextiiiPv>
 370:	531d7289 	lsl	w9, w20, #3
 374:	531d72ea 	lsl	w10, w23, #3
 378:	91000108 	add	x8, x8, #0x0
 37c:	aa1603e0 	mov	x0, x22
 380:	2a1c03e3 	mov	w3, w28
 384:	2a1803e4 	mov	w4, w24
 388:	2a1403e5 	mov	w5, w20
 38c:	2a1f03e6 	mov	w6, wzr
 390:	b90073ea 	str	w10, [sp,#112]
 394:	b9006be9 	str	w9, [sp,#104]
 398:	b90063f8 	str	w24, [sp,#96]
 39c:	b9005bfc 	str	w28, [sp,#88]
 3a0:	b90053ff 	str	wzr, [sp,#80]
 3a4:	b9004bff 	str	wzr, [sp,#72]
 3a8:	b90043ff 	str	wzr, [sp,#64]
 3ac:	b9003bff 	str	wzr, [sp,#56]
 3b0:	b90033ff 	str	wzr, [sp,#48]
 3b4:	b90023ff 	str	wzr, [sp,#32]
 3b8:	b9001bff 	str	wzr, [sp,#24]
 3bc:	b9000bff 	str	wzr, [sp,#8]
 3c0:	f9000be8 	str	x8, [sp,#16]
 3c4:	b90003f7 	str	w23, [sp]
 3c8:	94000000 	bl	0 <_ZL19stbi_write_tga_coreP19stbi__write_contextiiiPv>
 3cc:	f9401668 	ldr	x8, [x19,#40]
 3d0:	f85a03a9 	ldur	x9, [x29,#-96]
 3d4:	eb09011f 	cmp	x8, x9
 3d8:	54000100 	b.eq	3f8 <_ZL19stbi_write_tga_coreP19stbi__write_contextiiiPv+0x3f8>
 3dc:	17ffffe1 	b	360 <_ZL19stbi_write_tga_coreP19stbi__write_contextiiiPv+0x360>
 3e0:	f94043f3 	ldr	x19, [sp,#128]
 3e4:	52800020 	mov	w0, #0x1                   	// #1
 3e8:	f9401668 	ldr	x8, [x19,#40]
 3ec:	f85a03a9 	ldur	x9, [x29,#-96]
 3f0:	eb09011f 	cmp	x8, x9
 3f4:	54fffb61 	b.ne	360 <_ZL19stbi_write_tga_coreP19stbi__write_contextiiiPv+0x360>
 3f8:	a9557bfd 	ldp	x29, x30, [sp,#336]
 3fc:	a9544ff4 	ldp	x20, x19, [sp,#320]
 400:	a95357f6 	ldp	x22, x21, [sp,#304]
 404:	a9525ff8 	ldp	x24, x23, [sp,#288]
 408:	a95167fa 	ldp	x26, x25, [sp,#272]
 40c:	a9506ffc 	ldp	x28, x27, [sp,#256]
 410:	910583ff 	add	sp, sp, #0x160
 414:	d65f03c0 	ret

Disassembly of section .text.stbi_write_tga:

0000000000000000 <stbi_write_tga>:
   0:	d10143ff 	sub	sp, sp, #0x50
   4:	f9000bf7 	str	x23, [sp,#16]
   8:	a90257f6 	stp	x22, x21, [sp,#32]
   c:	a9034ff4 	stp	x20, x19, [sp,#48]
  10:	a9047bfd 	stp	x29, x30, [sp,#64]
  14:	910103fd 	add	x29, sp, #0x40
  18:	2a0103f7 	mov	w23, w1
  1c:	90000001 	adrp	x1, 0 <stbi_write_tga>
  20:	91000021 	add	x1, x1, #0x0
  24:	aa0403f3 	mov	x19, x4
  28:	2a0303f4 	mov	w20, w3
  2c:	2a0203f5 	mov	w21, w2
  30:	94000000 	bl	0 <fopen>
  34:	90000008 	adrp	x8, 0 <stbi_write_tga>
  38:	91000108 	add	x8, x8, #0x0
  3c:	a90003e8 	stp	x8, x0, [sp]
  40:	b4000180 	cbz	x0, 70 <stbi_write_tga+0x70>
  44:	aa0003f6 	mov	x22, x0
  48:	910003e0 	mov	x0, sp
  4c:	2a1703e1 	mov	w1, w23
  50:	2a1503e2 	mov	w2, w21
  54:	2a1403e3 	mov	w3, w20
  58:	aa1303e4 	mov	x4, x19
  5c:	94000000 	bl	0 <stbi_write_tga>
  60:	2a0003f3 	mov	w19, w0
  64:	aa1603e0 	mov	x0, x22
  68:	94000000 	bl	0 <fclose>
  6c:	14000002 	b	74 <stbi_write_tga+0x74>
  70:	2a1f03f3 	mov	w19, wzr
  74:	2a1303e0 	mov	w0, w19
  78:	a9447bfd 	ldp	x29, x30, [sp,#64]
  7c:	a9434ff4 	ldp	x20, x19, [sp,#48]
  80:	a94257f6 	ldp	x22, x21, [sp,#32]
  84:	f9400bf7 	ldr	x23, [sp,#16]
  88:	910143ff 	add	sp, sp, #0x50
  8c:	d65f03c0 	ret

Disassembly of section .text.stbi_write_hdr_to_func:

0000000000000000 <stbi_write_hdr_to_func>:
   0:	d10083ff 	sub	sp, sp, #0x20
   4:	a9017bfd 	stp	x29, x30, [sp,#16]
   8:	910043fd 	add	x29, sp, #0x10
   c:	a90007e0 	stp	x0, x1, [sp]
  10:	910003e0 	mov	x0, sp
  14:	2a0203e1 	mov	w1, w2
  18:	2a0303e2 	mov	w2, w3
  1c:	2a0403e3 	mov	w3, w4
  20:	aa0503e4 	mov	x4, x5
  24:	94000000 	bl	0 <stbi_write_hdr_to_func>
  28:	a9417bfd 	ldp	x29, x30, [sp,#16]
  2c:	910083ff 	add	sp, sp, #0x20
  30:	d65f03c0 	ret

Disassembly of section .text._ZL19stbi_write_hdr_coreP19stbi__write_contextiiiPf:

0000000000000000 <_ZL19stbi_write_hdr_coreP19stbi__write_contextiiiPf>:
   0:	d107c3ff 	sub	sp, sp, #0x1f0
   4:	6d172beb 	stp	d11, d10, [sp,#368]
   8:	6d1823e9 	stp	d9, d8, [sp,#384]
   c:	a9196ffc 	stp	x28, x27, [sp,#400]
  10:	a91a67fa 	stp	x26, x25, [sp,#416]
  14:	a91b5ff8 	stp	x24, x23, [sp,#432]
  18:	a91c57f6 	stp	x22, x21, [sp,#448]
  1c:	a91d4ff4 	stp	x20, x19, [sp,#464]
  20:	a91e7bfd 	stp	x29, x30, [sp,#480]
  24:	910783fd 	add	x29, sp, #0x1e0
  28:	d53bd049 	mrs	x9, tpidr_el0
  2c:	f9401528 	ldr	x8, [x9,#40]
  30:	aa0003f6 	mov	x22, x0
  34:	2a1f03e0 	mov	w0, wzr
  38:	7100043f 	cmp	w1, #0x1
  3c:	f81803a8 	stur	x8, [x29,#-128]
  40:	54002dab 	b.lt	5f4 <_ZL19stbi_write_hdr_coreP19stbi__write_contextiiiPf+0x5f4>
  44:	2a0203f5 	mov	w21, w2
  48:	7100045f 	cmp	w2, #0x1
  4c:	54002d4b 	b.lt	5f4 <_ZL19stbi_write_hdr_coreP19stbi__write_contextiiiPf+0x5f4>
  50:	aa0403f3 	mov	x19, x4
  54:	b4002d04 	cbz	x4, 5f4 <_ZL19stbi_write_hdr_coreP19stbi__write_contextiiiPf+0x5f4>
  58:	531e7428 	lsl	w8, w1, #2
  5c:	93407d00 	sxtw	x0, w8
  60:	2a0303f8 	mov	w24, w3
  64:	2a0103f9 	mov	w25, w1
  68:	f90007e9 	str	x9, [sp,#8]
  6c:	94000000 	bl	0 <malloc>
  70:	90000008 	adrp	x8, 0 <_ZL19stbi_write_hdr_coreP19stbi__write_contextiiiPf>
  74:	91000108 	add	x8, x8, #0x0
  78:	ad400d00 	ldp	q0, q3, [x8]
  7c:	ad410901 	ldp	q1, q2, [x8,#32]
  80:	52800149 	mov	w9, #0xa                   	// #10
  84:	7901a3e9 	strh	w9, [sp,#208]
  88:	ad048fe0 	stp	q0, q3, [sp,#144]
  8c:	ad058be1 	stp	q1, q2, [sp,#176]
  90:	a94022c9 	ldp	x9, x8, [x22]
  94:	aa0003f4 	mov	x20, x0
  98:	910243e1 	add	x1, sp, #0x90
  9c:	52800822 	mov	w2, #0x41                  	// #65
  a0:	aa0803e0 	mov	x0, x8
  a4:	d63f0120 	blr	x9
  a8:	910383e0 	add	x0, sp, #0xe0
  ac:	2a1503e3 	mov	w3, w21
  b0:	2a1903e4 	mov	w4, w25
  b4:	94000000 	bl	0 <_ZL19stbi_write_hdr_coreP19stbi__write_contextiiiPf>
  b8:	a94022c9 	ldp	x9, x8, [x22]
  bc:	2a0003e2 	mov	w2, w0
  c0:	910383e1 	add	x1, sp, #0xe0
  c4:	aa0803e0 	mov	x0, x8
  c8:	d63f0120 	blr	x9
  cc:	2a1903ea 	mov	w10, w25
  d0:	51000f09 	sub	w9, w24, #0x3
  d4:	f90027ea 	str	x10, [sp,#72]
  d8:	9100226a 	add	x10, x19, #0x8
  dc:	1b197f08 	mul	w8, w24, w25
  e0:	290823e9 	stp	w9, w8, [sp,#64]
  e4:	531f7b29 	lsl	w9, w25, #1
  e8:	f9000fea 	str	x10, [sp,#24]
  ec:	9100068a 	add	x10, x20, #0x1
  f0:	51002328 	sub	w8, w25, #0x8
  f4:	93407f3c 	sxtw	x28, w25
  f8:	937e7f18 	sbfiz	x24, x24, #2, #32
  fc:	f90037f4 	str	x20, [sp,#104]
 100:	f9000bea 	str	x10, [sp,#16]
 104:	5ac00b2a 	rev	w10, w25
 108:	529623f4 	mov	w20, #0xb11f                	// #45343
 10c:	93407d29 	sxtw	x9, w9
 110:	2a1f03eb 	mov	w11, wzr
 114:	72a149f4 	movk	w20, #0xa4f, lsl #16
 118:	8b39c79a 	add	x26, x28, w25, sxtw #1
 11c:	a905a7f8 	stp	x24, x9, [sp,#88]
 120:	53107d49 	lsr	w9, w10, #16
 124:	53037d08 	lsr	w8, w8, #3
 128:	290727e8 	stp	w8, w9, [sp,#56]
 12c:	f9001bf3 	str	x19, [sp,#48]
 130:	b9002ff5 	str	w21, [sp,#44]
 134:	f90013fa 	str	x26, [sp,#32]
 138:	f9003ff9 	str	x25, [sp,#120]
 13c:	14000008 	b	15c <_ZL19stbi_write_hdr_coreP19stbi__write_contextiiiPf+0x15c>
 140:	b94057eb 	ldr	w11, [sp,#84]
 144:	b9402ff5 	ldr	w21, [sp,#44]
 148:	f9401bf3 	ldr	x19, [sp,#48]
 14c:	f94013fa 	ldr	x26, [sp,#32]
 150:	1100056b 	add	w11, w11, #0x1
 154:	6b15017f 	cmp	w11, w21
 158:	54002460 	b.eq	5e4 <_ZL19stbi_write_hdr_coreP19stbi__write_contextiiiPf+0x5e4>
 15c:	90000008 	adrp	x8, 0 <_ZL19stbi_write_hdr_coreP19stbi__write_contextiiiPf>
 160:	f9400108 	ldr	x8, [x8]
 164:	2a2b03e9 	mvn	w9, w11
 168:	0b150129 	add	w9, w9, w21
 16c:	5280404a 	mov	w10, #0x202                 	// #514
 170:	b9400108 	ldr	w8, [x8]
 174:	b90083ea 	str	w10, [sp,#128]
 178:	b90057eb 	str	w11, [sp,#84]
 17c:	7100011f 	cmp	w8, #0x0
 180:	1a890168 	csel	w8, w11, w9, eq
 184:	b9403be9 	ldr	w9, [sp,#56]
 188:	713ff93f 	cmp	w9, #0xffe
 18c:	b94047e9 	ldr	w9, [sp,#68]
 190:	1b087d29 	mul	w9, w9, w8
 194:	93407d28 	sxtw	x8, w9
 198:	8b29ca75 	add	x21, x19, w9, sxtw #2
 19c:	b9403fe9 	ldr	w9, [sp,#60]
 1a0:	790107e9 	strh	w9, [sp,#130]
 1a4:	540008c9 	b.ls	2bc <_ZL19stbi_write_hdr_coreP19stbi__write_contextiiiPf+0x2bc>
 1a8:	b94043e9 	ldr	w9, [sp,#64]
 1ac:	f94027f3 	ldr	x19, [sp,#72]
 1b0:	7100093f 	cmp	w9, #0x2
 1b4:	540002a2 	b.cs	208 <_ZL19stbi_write_hdr_coreP19stbi__write_contextiiiPf+0x208>
 1b8:	f9400fe9 	ldr	x9, [sp,#24]
 1bc:	f94027f5 	ldr	x21, [sp,#72]
 1c0:	8b080933 	add	x19, x9, x8, lsl #2
 1c4:	14000025 	b	258 <_ZL19stbi_write_hdr_coreP19stbi__write_contextiiiPf+0x258>
 1c8:	910213e0 	add	x0, sp, #0x84
 1cc:	94000000 	bl	0 <frexpf>
 1d0:	394213e9 	ldrb	w9, [sp,#132]
 1d4:	1e18e008 	fcvtzs	w8, s0, #8
 1d8:	390233e8 	strb	w8, [sp,#140]
 1dc:	390237e8 	strb	w8, [sp,#141]
 1e0:	52196129 	eor	w9, w9, #0xffffff80
 1e4:	39023be8 	strb	w8, [sp,#142]
 1e8:	39023fe9 	strb	w9, [sp,#143]
 1ec:	a94002c8 	ldp	x8, x0, [x22]
 1f0:	910233e1 	add	x1, sp, #0x8c
 1f4:	52800082 	mov	w2, #0x4                   	// #4
 1f8:	d63f0100 	blr	x8
 1fc:	f1000673 	subs	x19, x19, #0x1
 200:	8b1802b5 	add	x21, x21, x24
 204:	54fff9e0 	b.eq	140 <_ZL19stbi_write_hdr_coreP19stbi__write_contextiiiPf+0x140>
 208:	bd4002a0 	ldr	s0, [x21]
 20c:	1e270281 	fmov	s1, w20
 210:	1e212000 	fcmp	s0, s1
 214:	54fffdaa 	b.ge	1c8 <_ZL19stbi_write_hdr_coreP19stbi__write_contextiiiPf+0x1c8>
 218:	2a1f03e8 	mov	w8, wzr
 21c:	2a1f03e9 	mov	w9, wzr
 220:	79011bff 	strh	wzr, [sp,#140]
 224:	17fffff0 	b	1e4 <_ZL19stbi_write_hdr_coreP19stbi__write_contextiiiPf+0x1e4>
 228:	2a1f03e8 	mov	w8, wzr
 22c:	2a1f03e9 	mov	w9, wzr
 230:	79011bff 	strh	wzr, [sp,#140]
 234:	39023be8 	strb	w8, [sp,#142]
 238:	39023fe9 	strb	w9, [sp,#143]
 23c:	a94002c8 	ldp	x8, x0, [x22]
 240:	910233e1 	add	x1, sp, #0x8c
 244:	52800082 	mov	w2, #0x4                   	// #4
 248:	d63f0100 	blr	x8
 24c:	f10006b5 	subs	x21, x21, #0x1
 250:	8b180273 	add	x19, x19, x24
 254:	54fff760 	b.eq	140 <_ZL19stbi_write_hdr_coreP19stbi__write_contextiiiPf+0x140>
 258:	2d7fa66a 	ldp	s10, s9, [x19,#-4]
 25c:	bc5f826b 	ldur	s11, [x19,#-8]
 260:	1e296940 	fmaxnm	s0, s10, s9
 264:	1e2b6808 	fmaxnm	s8, s0, s11
 268:	1e270280 	fmov	s0, w20
 26c:	1e202100 	fcmp	s8, s0
 270:	54fffdcb 	b.lt	228 <_ZL19stbi_write_hdr_coreP19stbi__write_contextiiiPf+0x228>
 274:	910213e0 	add	x0, sp, #0x84
 278:	4ea81d00 	mov	v0.16b, v8.16b
 27c:	94000000 	bl	0 <frexpf>
 280:	52a87008 	mov	w8, #0x43800000            	// #1132462080
 284:	1e270101 	fmov	s1, w8
 288:	1e210800 	fmul	s0, s0, s1
 28c:	394213e9 	ldrb	w9, [sp,#132]
 290:	1e281800 	fdiv	s0, s0, s8
 294:	1e2b0801 	fmul	s1, s0, s11
 298:	1e2a0802 	fmul	s2, s0, s10
 29c:	1e290800 	fmul	s0, s0, s9
 2a0:	1e38002a 	fcvtzs	w10, s1
 2a4:	1e38004b 	fcvtzs	w11, s2
 2a8:	1e380008 	fcvtzs	w8, s0
 2ac:	390233ea 	strb	w10, [sp,#140]
 2b0:	390237eb 	strb	w11, [sp,#141]
 2b4:	52196129 	eor	w9, w9, #0xffffff80
 2b8:	17ffffdf 	b	234 <_ZL19stbi_write_hdr_coreP19stbi__write_contextiiiPf+0x234>
 2bc:	b94043e9 	ldr	w9, [sp,#64]
 2c0:	f94027f3 	ldr	x19, [sp,#72]
 2c4:	f94037f7 	ldr	x23, [sp,#104]
 2c8:	7100093f 	cmp	w9, #0x2
 2cc:	54000302 	b.cs	32c <_ZL19stbi_write_hdr_coreP19stbi__write_contextiiiPf+0x32c>
 2d0:	f9400fe9 	ldr	x9, [sp,#24]
 2d4:	f94027f5 	ldr	x21, [sp,#72]
 2d8:	f94037f7 	ldr	x23, [sp,#104]
 2dc:	8b080933 	add	x19, x9, x8, lsl #2
 2e0:	1400002b 	b	38c <_ZL19stbi_write_hdr_coreP19stbi__write_contextiiiPf+0x38c>
 2e4:	910213e0 	add	x0, sp, #0x84
 2e8:	94000000 	bl	0 <frexpf>
 2ec:	394213e9 	ldrb	w9, [sp,#132]
 2f0:	1e18e008 	fcvtzs	w8, s0, #8
 2f4:	390233e8 	strb	w8, [sp,#140]
 2f8:	390237e8 	strb	w8, [sp,#141]
 2fc:	52196129 	eor	w9, w9, #0xffffff80
 300:	f94033ea 	ldr	x10, [sp,#96]
 304:	390002e8 	strb	w8, [x23]
 308:	383c6ae8 	strb	w8, [x23,x28]
 30c:	f1000673 	subs	x19, x19, #0x1
 310:	382a6ae8 	strb	w8, [x23,x10]
 314:	383a6ae9 	strb	w9, [x23,x26]
 318:	910006f7 	add	x23, x23, #0x1
 31c:	8b1802b5 	add	x21, x21, x24
 320:	39023be8 	strb	w8, [sp,#142]
 324:	39023fe9 	strb	w9, [sp,#143]
 328:	54000640 	b.eq	3f0 <_ZL19stbi_write_hdr_coreP19stbi__write_contextiiiPf+0x3f0>
 32c:	bd4002a0 	ldr	s0, [x21]
 330:	1e270281 	fmov	s1, w20
 334:	1e212000 	fcmp	s0, s1
 338:	54fffd6a 	b.ge	2e4 <_ZL19stbi_write_hdr_coreP19stbi__write_contextiiiPf+0x2e4>
 33c:	2a1f03e8 	mov	w8, wzr
 340:	2a1f03e9 	mov	w9, wzr
 344:	79011bff 	strh	wzr, [sp,#140]
 348:	17ffffee 	b	300 <_ZL19stbi_write_hdr_coreP19stbi__write_contextiiiPf+0x300>
 34c:	2a1f03e8 	mov	w8, wzr
 350:	2a1f03ea 	mov	w10, wzr
 354:	2a1f03e9 	mov	w9, wzr
 358:	2a1f03eb 	mov	w11, wzr
 35c:	79011bff 	strh	wzr, [sp,#140]
 360:	390002ea 	strb	w10, [x23]
 364:	383c6ae8 	strb	w8, [x23,x28]
 368:	f94033e8 	ldr	x8, [sp,#96]
 36c:	f10006b5 	subs	x21, x21, #0x1
 370:	8b180273 	add	x19, x19, x24
 374:	39023be9 	strb	w9, [sp,#142]
 378:	38286ae9 	strb	w9, [x23,x8]
 37c:	383a6aeb 	strb	w11, [x23,x26]
 380:	910006f7 	add	x23, x23, #0x1
 384:	39023feb 	strb	w11, [sp,#143]
 388:	54000340 	b.eq	3f0 <_ZL19stbi_write_hdr_coreP19stbi__write_contextiiiPf+0x3f0>
 38c:	2d7fa66a 	ldp	s10, s9, [x19,#-4]
 390:	bc5f826b 	ldur	s11, [x19,#-8]
 394:	1e296940 	fmaxnm	s0, s10, s9
 398:	1e2b6808 	fmaxnm	s8, s0, s11
 39c:	1e270280 	fmov	s0, w20
 3a0:	1e202100 	fcmp	s8, s0
 3a4:	54fffd4b 	b.lt	34c <_ZL19stbi_write_hdr_coreP19stbi__write_contextiiiPf+0x34c>
 3a8:	910213e0 	add	x0, sp, #0x84
 3ac:	4ea81d00 	mov	v0.16b, v8.16b
 3b0:	94000000 	bl	0 <frexpf>
 3b4:	52a87008 	mov	w8, #0x43800000            	// #1132462080
 3b8:	1e270101 	fmov	s1, w8
 3bc:	1e210800 	fmul	s0, s0, s1
 3c0:	394213eb 	ldrb	w11, [sp,#132]
 3c4:	1e281800 	fdiv	s0, s0, s8
 3c8:	1e2b0801 	fmul	s1, s0, s11
 3cc:	1e2a0802 	fmul	s2, s0, s10
 3d0:	1e290800 	fmul	s0, s0, s9
 3d4:	1e38002a 	fcvtzs	w10, s1
 3d8:	1e380048 	fcvtzs	w8, s2
 3dc:	1e380009 	fcvtzs	w9, s0
 3e0:	390233ea 	strb	w10, [sp,#140]
 3e4:	390237e8 	strb	w8, [sp,#141]
 3e8:	5219616b 	eor	w11, w11, #0xffffff80
 3ec:	17ffffdd 	b	360 <_ZL19stbi_write_hdr_coreP19stbi__write_contextiiiPf+0x360>
 3f0:	a94002c8 	ldp	x8, x0, [x22]
 3f4:	910203e1 	add	x1, sp, #0x80
 3f8:	52800082 	mov	w2, #0x4                   	// #4
 3fc:	d63f0100 	blr	x8
 400:	f94037f7 	ldr	x23, [sp,#104]
 404:	f9400bfa 	ldr	x26, [sp,#16]
 408:	aa1f03e9 	mov	x9, xzr
 40c:	1400000a 	b	434 <_ZL19stbi_write_hdr_coreP19stbi__write_contextiiiPf+0x434>
 410:	f9403be9 	ldr	x9, [sp,#112]
 414:	f9402ff8 	ldr	x24, [sp,#88]
 418:	529623f4 	mov	w20, #0xb11f                	// #45343
 41c:	8b1c035a 	add	x26, x26, x28
 420:	91000529 	add	x9, x9, #0x1
 424:	f100113f 	cmp	x9, #0x4
 428:	8b1c02f7 	add	x23, x23, x28
 42c:	72a149f4 	movk	w20, #0xa4f, lsl #16
 430:	54ffe880 	b.eq	140 <_ZL19stbi_write_hdr_coreP19stbi__write_contextiiiPf+0x140>
 434:	f94037e8 	ldr	x8, [sp,#104]
 438:	2a1f03fb 	mov	w27, wzr
 43c:	f9003be9 	str	x9, [sp,#112]
 440:	d503201f 	nop
 444:	9b1c2135 	madd	x21, x9, x28, x8
 448:	11000b69 	add	w9, w27, #0x2
 44c:	6b19013f 	cmp	w9, w25
 450:	2a1903f3 	mov	w19, w25
 454:	5400038a 	b.ge	4c4 <_ZL19stbi_write_hdr_coreP19stbi__write_contextiiiPf+0x4c4>
 458:	14000007 	b	474 <_ZL19stbi_write_hdr_coreP19stbi__write_contextiiiPf+0x474>
 45c:	6b19037f 	cmp	w27, w25
 460:	54fffd8a 	b.ge	410 <_ZL19stbi_write_hdr_coreP19stbi__write_contextiiiPf+0x410>
 464:	11000b69 	add	w9, w27, #0x2
 468:	6b19013f 	cmp	w9, w25
 46c:	2a1903f3 	mov	w19, w25
 470:	540002aa 	b.ge	4c4 <_ZL19stbi_write_hdr_coreP19stbi__write_contextiiiPf+0x4c4>
 474:	93407f68 	sxtw	x8, w27
 478:	38686aaa 	ldrb	w10, [x21,x8]
 47c:	8b29c2e9 	add	x9, x23, w9, sxtw
 480:	2a1b03f3 	mov	w19, w27
 484:	38686b4b 	ldrb	w11, [x26,x8]
 488:	6b2a017f 	cmp	w11, w10, uxtb
 48c:	54000160 	b.eq	4b8 <_ZL19stbi_write_hdr_coreP19stbi__write_contextiiiPf+0x4b8>
 490:	91000508 	add	x8, x8, #0x1
 494:	9100090a 	add	x10, x8, #0x2
 498:	11000673 	add	w19, w19, #0x1
 49c:	eb1c015f 	cmp	x10, x28
 4a0:	91000529 	add	x9, x9, #0x1
 4a4:	2a0b03ea 	mov	w10, w11
 4a8:	5400014a 	b.ge	4d0 <_ZL19stbi_write_hdr_coreP19stbi__write_contextiiiPf+0x4d0>
 4ac:	38686b4b 	ldrb	w11, [x26,x8]
 4b0:	6b2a017f 	cmp	w11, w10, uxtb
 4b4:	54fffee1 	b.ne	490 <_ZL19stbi_write_hdr_coreP19stbi__write_contextiiiPf+0x490>
 4b8:	3940012c 	ldrb	w12, [x9]
 4bc:	6b2a019f 	cmp	w12, w10, uxtb
 4c0:	54fffe81 	b.ne	490 <_ZL19stbi_write_hdr_coreP19stbi__write_contextiiiPf+0x490>
 4c4:	6b1b027f 	cmp	w19, w27
 4c8:	540000ac 	b.gt	4dc <_ZL19stbi_write_hdr_coreP19stbi__write_contextiiiPf+0x4dc>
 4cc:	14000015 	b	520 <_ZL19stbi_write_hdr_coreP19stbi__write_contextiiiPf+0x520>
 4d0:	2a1903f3 	mov	w19, w25
 4d4:	6b1b027f 	cmp	w19, w27
 4d8:	5400024d 	b.le	520 <_ZL19stbi_write_hdr_coreP19stbi__write_contextiiiPf+0x520>
 4dc:	52801014 	mov	w20, #0x80                  	// #128
 4e0:	4b1b0268 	sub	w8, w19, w27
 4e4:	7102011f 	cmp	w8, #0x80
 4e8:	1a94b118 	csel	w24, w8, w20, lt
 4ec:	390213f8 	strb	w24, [sp,#132]
 4f0:	a94002c8 	ldp	x8, x0, [x22]
 4f4:	910213e1 	add	x1, sp, #0x84
 4f8:	52800022 	mov	w2, #0x1                   	// #1
 4fc:	8b3bc2b9 	add	x25, x21, w27, sxtw
 500:	d63f0100 	blr	x8
 504:	a94002c8 	ldp	x8, x0, [x22]
 508:	aa1903e1 	mov	x1, x25
 50c:	2a1803e2 	mov	w2, w24
 510:	d63f0100 	blr	x8
 514:	0b1b031b 	add	w27, w24, w27
 518:	6b1b027f 	cmp	w19, w27
 51c:	54fffe2c 	b.gt	4e0 <_ZL19stbi_write_hdr_coreP19stbi__write_contextiiiPf+0x4e0>
 520:	f9403ff9 	ldr	x25, [sp,#120]
 524:	11000a68 	add	w8, w19, #0x2
 528:	6b19011f 	cmp	w8, w25
 52c:	54fff98a 	b.ge	45c <_ZL19stbi_write_hdr_coreP19stbi__write_contextiiiPf+0x45c>
 530:	387bcaa8 	ldrb	w8, [x21,w27,sxtw]
 534:	93407e73 	sxtw	x19, w19
 538:	52800ff4 	mov	w20, #0x7f                  	// #127
 53c:	38736ae9 	ldrb	w9, [x23,x19]
 540:	6b08013f 	cmp	w9, w8
 544:	54000081 	b.ne	554 <_ZL19stbi_write_hdr_coreP19stbi__write_contextiiiPf+0x554>
 548:	91000673 	add	x19, x19, #0x1
 54c:	eb1c027f 	cmp	x19, x28
 550:	54ffff6b 	b.lt	53c <_ZL19stbi_write_hdr_coreP19stbi__write_contextiiiPf+0x53c>
 554:	6b1b0269 	subs	w9, w19, w27
 558:	54fff82d 	b.le	45c <_ZL19stbi_write_hdr_coreP19stbi__write_contextiiiPf+0x45c>
 55c:	7101fd3f 	cmp	w9, #0x7f
 560:	1a94b138 	csel	w24, w9, w20, lt
 564:	390213e8 	strb	w8, [sp,#132]
 568:	11020308 	add	w8, w24, #0x80
 56c:	7103fd1f 	cmp	w8, #0xff
 570:	390223e8 	strb	w8, [sp,#136]
 574:	5400028c 	b.gt	5c4 <_ZL19stbi_write_hdr_coreP19stbi__write_contextiiiPf+0x5c4>
 578:	a94002c8 	ldp	x8, x0, [x22]
 57c:	910223e1 	add	x1, sp, #0x88
 580:	52800022 	mov	w2, #0x1                   	// #1
 584:	d63f0100 	blr	x8
 588:	a94002c8 	ldp	x8, x0, [x22]
 58c:	910213e1 	add	x1, sp, #0x84
 590:	52800022 	mov	w2, #0x1                   	// #1
 594:	d63f0100 	blr	x8
 598:	0b1b031b 	add	w27, w24, w27
 59c:	6b1b0268 	subs	w8, w19, w27
 5a0:	54fff5ed 	b.le	45c <_ZL19stbi_write_hdr_coreP19stbi__write_contextiiiPf+0x45c>
 5a4:	387bcaa9 	ldrb	w9, [x21,w27,sxtw]
 5a8:	7101fd1f 	cmp	w8, #0x7f
 5ac:	1a94b118 	csel	w24, w8, w20, lt
 5b0:	11020308 	add	w8, w24, #0x80
 5b4:	7104011f 	cmp	w8, #0x100
 5b8:	390213e9 	strb	w9, [sp,#132]
 5bc:	390223e8 	strb	w8, [sp,#136]
 5c0:	54fffdcb 	b.lt	578 <_ZL19stbi_write_hdr_coreP19stbi__write_contextiiiPf+0x578>
 5c4:	90000000 	adrp	x0, 0 <_ZL19stbi_write_hdr_coreP19stbi__write_contextiiiPf>
 5c8:	90000002 	adrp	x2, 0 <_ZL19stbi_write_hdr_coreP19stbi__write_contextiiiPf>
 5cc:	90000003 	adrp	x3, 0 <_ZL19stbi_write_hdr_coreP19stbi__write_contextiiiPf>
 5d0:	91000000 	add	x0, x0, #0x0
 5d4:	91000042 	add	x2, x2, #0x0
 5d8:	91000063 	add	x3, x3, #0x0
 5dc:	52804e41 	mov	w1, #0x272                 	// #626
 5e0:	94000000 	bl	0 <__assert2>
 5e4:	f94037e0 	ldr	x0, [sp,#104]
 5e8:	94000000 	bl	0 <free>
 5ec:	f94007e9 	ldr	x9, [sp,#8]
 5f0:	52800020 	mov	w0, #0x1                   	// #1
 5f4:	f9401528 	ldr	x8, [x9,#40]
 5f8:	f85803a9 	ldur	x9, [x29,#-128]
 5fc:	eb09011f 	cmp	x8, x9
 600:	54000161 	b.ne	62c <_ZL19stbi_write_hdr_coreP19stbi__write_contextiiiPf+0x62c>
 604:	a95e7bfd 	ldp	x29, x30, [sp,#480]
 608:	a95d4ff4 	ldp	x20, x19, [sp,#464]
 60c:	a95c57f6 	ldp	x22, x21, [sp,#448]
 610:	a95b5ff8 	ldp	x24, x23, [sp,#432]
 614:	a95a67fa 	ldp	x26, x25, [sp,#416]
 618:	a9596ffc 	ldp	x28, x27, [sp,#400]
 61c:	6d5823e9 	ldp	d9, d8, [sp,#384]
 620:	6d572beb 	ldp	d11, d10, [sp,#368]
 624:	9107c3ff 	add	sp, sp, #0x1f0
 628:	d65f03c0 	ret
 62c:	94000000 	bl	0 <__stack_chk_fail>

Disassembly of section .text.stbi_write_hdr:

0000000000000000 <stbi_write_hdr>:
   0:	d10143ff 	sub	sp, sp, #0x50
   4:	f9000bf7 	str	x23, [sp,#16]
   8:	a90257f6 	stp	x22, x21, [sp,#32]
   c:	a9034ff4 	stp	x20, x19, [sp,#48]
  10:	a9047bfd 	stp	x29, x30, [sp,#64]
  14:	910103fd 	add	x29, sp, #0x40
  18:	2a0103f7 	mov	w23, w1
  1c:	90000001 	adrp	x1, 0 <stbi_write_hdr>
  20:	91000021 	add	x1, x1, #0x0
  24:	aa0403f3 	mov	x19, x4
  28:	2a0303f4 	mov	w20, w3
  2c:	2a0203f5 	mov	w21, w2
  30:	94000000 	bl	0 <fopen>
  34:	90000008 	adrp	x8, 0 <stbi_write_hdr>
  38:	91000108 	add	x8, x8, #0x0
  3c:	a90003e8 	stp	x8, x0, [sp]
  40:	b4000180 	cbz	x0, 70 <stbi_write_hdr+0x70>
  44:	aa0003f6 	mov	x22, x0
  48:	910003e0 	mov	x0, sp
  4c:	2a1703e1 	mov	w1, w23
  50:	2a1503e2 	mov	w2, w21
  54:	2a1403e3 	mov	w3, w20
  58:	aa1303e4 	mov	x4, x19
  5c:	94000000 	bl	0 <stbi_write_hdr>
  60:	2a0003f3 	mov	w19, w0
  64:	aa1603e0 	mov	x0, x22
  68:	94000000 	bl	0 <fclose>
  6c:	14000002 	b	74 <stbi_write_hdr+0x74>
  70:	2a1f03f3 	mov	w19, wzr
  74:	2a1303e0 	mov	w0, w19
  78:	a9447bfd 	ldp	x29, x30, [sp,#64]
  7c:	a9434ff4 	ldp	x20, x19, [sp,#48]
  80:	a94257f6 	ldp	x22, x21, [sp,#32]
  84:	f9400bf7 	ldr	x23, [sp,#16]
  88:	910143ff 	add	sp, sp, #0x50
  8c:	d65f03c0 	ret

Disassembly of section .text.stbi_zlib_compress:

0000000000000000 <stbi_zlib_compress>:
       0:	d102c3ff 	sub	sp, sp, #0xb0
       4:	a9056ffc 	stp	x28, x27, [sp,#80]
       8:	a90667fa 	stp	x26, x25, [sp,#96]
       c:	a9075ff8 	stp	x24, x23, [sp,#112]
      10:	a90857f6 	stp	x22, x21, [sp,#128]
      14:	a9094ff4 	stp	x20, x19, [sp,#144]
      18:	a90a7bfd 	stp	x29, x30, [sp,#160]
      1c:	910283fd 	add	x29, sp, #0xa0
      20:	aa0003fa 	mov	x26, x0
      24:	52a00040 	mov	w0, #0x20000               	// #131072
      28:	2a0303f7 	mov	w23, w3
      2c:	aa0203f3 	mov	x19, x2
      30:	2a0103f6 	mov	w22, w1
      34:	94000000 	bl	0 <malloc>
      38:	f90027e0 	str	x0, [sp,#72]
      3c:	b4005f20 	cbz	x0, c20 <stbi_zlib_compress+0xc20>
      40:	710016ff 	cmp	w23, #0x5
      44:	528000a8 	mov	w8, #0x5                   	// #5
      48:	1a88c2e8 	csel	w8, w23, w8, gt
      4c:	52800140 	mov	w0, #0xa                   	// #10
      50:	b9001be8 	str	w8, [sp,#24]
      54:	94000000 	bl	0 <malloc>
      58:	b4007bc0 	cbz	x0, fd0 <stbi_zlib_compress+0xfd0>
      5c:	90000008 	adrp	x8, 0 <stbi_zlib_compress>
      60:	fd400100 	ldr	d0, [x8]
      64:	52800f08 	mov	w8, #0x78                  	// #120
      68:	528001a1 	mov	w1, #0xd                   	// #13
      6c:	39002008 	strb	w8, [x0,#8]
      70:	fd000000 	str	d0, [x0]
      74:	94000000 	bl	0 <realloc>
      78:	b4007ac0 	cbz	x0, fd0 <stbi_zlib_compress+0xfd0>
      7c:	b9800408 	ldrsw	x8, [x0,#4]
      80:	528000a9 	mov	w9, #0x5                   	// #5
      84:	b9000009 	str	w9, [x0]
      88:	91002017 	add	x23, x0, #0x8
      8c:	11000509 	add	w9, w8, #0x1
      90:	b9000409 	str	w9, [x0,#4]
      94:	f94027e0 	ldr	x0, [sp,#72]
      98:	52800bca 	mov	w10, #0x5e                  	// #94
      9c:	52a00042 	mov	w2, #0x20000               	// #131072
      a0:	2a1f03e1 	mov	w1, wzr
      a4:	f90003f3 	str	x19, [sp]
      a8:	38286aea 	strb	w10, [x23,x8]
      ac:	94000000 	bl	0 <memset>
      b0:	51000ec8 	sub	w8, w22, #0x3
      b4:	7100051f 	cmp	w8, #0x1
      b8:	b90023e8 	str	w8, [sp,#32]
      bc:	54005b6b 	b.lt	c28 <stbi_zlib_compress+0xc28>
      c0:	b9401be8 	ldr	w8, [sp,#24]
      c4:	2a1f03f5 	mov	w21, wzr
      c8:	52800074 	mov	w20, #0x3                   	// #3
      cc:	5280007b 	mov	w27, #0x3                   	// #3
      d0:	531f7909 	lsl	w9, w8, #1
      d4:	2a0803e8 	mov	w8, w8
      d8:	f9000be8 	str	x8, [sp,#16]
      dc:	d37df108 	lsl	x8, x8, #3
      e0:	b9001fe9 	str	w9, [sp,#28]
      e4:	f90007e8 	str	x8, [sp,#8]
      e8:	b90027f6 	str	w22, [sp,#36]
      ec:	f90017fa 	str	x26, [sp,#40]
      f0:	14000006 	b	108 <stbi_zlib_compress+0x108>
      f4:	aa1c03f5 	mov	x21, x28
      f8:	0b1502d5 	add	w21, w22, w21
      fc:	29445be8 	ldp	w8, w22, [sp,#32]
     100:	6b0802bf 	cmp	w21, w8
     104:	540049ea 	b.ge	a40 <stbi_zlib_compress+0xa40>
     108:	8b35c35c 	add	x28, x26, w21, sxtw
     10c:	aa1c03f8 	mov	x24, x28
     110:	39400388 	ldrb	w8, [x28]
     114:	38401f09 	ldrb	w9, [x24,#1]!
     118:	39400b8a 	ldrb	w10, [x28,#2]
     11c:	33181d28 	bfi	w8, w9, #8, #8
     120:	33101d48 	bfi	w8, w10, #16, #8
     124:	4a080d08 	eor	w8, w8, w8, lsl #3
     128:	0b481508 	add	w8, w8, w8, lsr #5
     12c:	4a081108 	eor	w8, w8, w8, lsl #4
     130:	0b484508 	add	w8, w8, w8, lsr #17
     134:	0b481908 	add	w8, w8, w8, lsr #6
     138:	12003509 	and	w9, w8, #0x3fff
     13c:	f94027e8 	ldr	x8, [sp,#72]
     140:	f90023e9 	str	x9, [sp,#64]
     144:	f8695919 	ldr	x25, [x8,w9,uxtw #3]
     148:	b40004f9 	cbz	x25, 1e4 <stbi_zlib_compress+0x1e4>
     14c:	b89fc328 	ldursw	x8, [x25,#-4]
     150:	7100051f 	cmp	w8, #0x1
     154:	5400054b 	b.lt	1fc <stbi_zlib_compress+0x1fc>
     158:	4b1502ca 	sub	w10, w22, w21
     15c:	7100055f 	cmp	w10, #0x1
     160:	5400054b 	b.lt	208 <stbi_zlib_compress+0x208>
     164:	514022ab 	sub	w11, w21, #0x8, lsl #12
     168:	aa1f03e9 	mov	x9, xzr
     16c:	aa1f03f3 	mov	x19, xzr
     170:	93407d4a 	sxtw	x10, w10
     174:	93407d6b 	sxtw	x11, w11
     178:	52800076 	mov	w22, #0x3                   	// #3
     17c:	f8697b2c 	ldr	x12, [x25,x9,lsl #3]
     180:	cb1a018d 	sub	x13, x12, x26
     184:	eb0b01bf 	cmp	x13, x11
     188:	540000ad 	b.le	19c <stbi_zlib_compress+0x19c>
     18c:	1400000b 	b	1b8 <stbi_zlib_compress+0x1b8>
     190:	6b1601bf 	cmp	w13, w22
     194:	1a8db2d6 	csel	w22, w22, w13, lt
     198:	9a8cb273 	csel	x19, x19, x12, lt
     19c:	91000529 	add	x9, x9, #0x1
     1a0:	eb08013f 	cmp	x9, x8
     1a4:	54000500 	b.eq	244 <stbi_zlib_compress+0x244>
     1a8:	f8697b2c 	ldr	x12, [x25,x9,lsl #3]
     1ac:	cb1a018d 	sub	x13, x12, x26
     1b0:	eb0b01bf 	cmp	x13, x11
     1b4:	54ffff4d 	b.le	19c <stbi_zlib_compress+0x19c>
     1b8:	aa1f03ed 	mov	x13, xzr
     1bc:	386d698e 	ldrb	w14, [x12,x13]
     1c0:	386d6b8f 	ldrb	w15, [x28,x13]
     1c4:	6b0f01df 	cmp	w14, w15
     1c8:	54fffe41 	b.ne	190 <stbi_zlib_compress+0x190>
     1cc:	910005ad 	add	x13, x13, #0x1
     1d0:	eb0a01bf 	cmp	x13, x10
     1d4:	54fffdea 	b.ge	190 <stbi_zlib_compress+0x190>
     1d8:	f10409bf 	cmp	x13, #0x102
     1dc:	54ffff03 	b.cc	1bc <stbi_zlib_compress+0x1bc>
     1e0:	17ffffec 	b	190 <stbi_zlib_compress+0x190>
     1e4:	52800028 	mov	w8, #0x1                   	// #1
     1e8:	f9001ff5 	str	x21, [sp,#56]
     1ec:	aa1f03f3 	mov	x19, xzr
     1f0:	b90037e8 	str	w8, [sp,#52]
     1f4:	52800076 	mov	w22, #0x3                   	// #3
     1f8:	1400002c 	b	2a8 <stbi_zlib_compress+0x2a8>
     1fc:	aa1f03f3 	mov	x19, xzr
     200:	52800076 	mov	w22, #0x3                   	// #3
     204:	14000011 	b	248 <stbi_zlib_compress+0x248>
     208:	7100051f 	cmp	w8, #0x1
     20c:	54000068 	b.hi	218 <stbi_zlib_compress+0x218>
     210:	aa1f03e9 	mov	x9, xzr
     214:	14000007 	b	230 <stbi_zlib_compress+0x230>
     218:	927ff909 	and	x9, x8, #0xfffffffffffffffe
     21c:	aa0903ea 	mov	x10, x9
     220:	f100094a 	subs	x10, x10, #0x2
     224:	54ffffe1 	b.ne	220 <stbi_zlib_compress+0x220>
     228:	eb08013f 	cmp	x9, x8
     22c:	54000080 	b.eq	23c <stbi_zlib_compress+0x23c>
     230:	cb090108 	sub	x8, x8, x9
     234:	f1000508 	subs	x8, x8, #0x1
     238:	54ffffe1 	b.ne	234 <stbi_zlib_compress+0x234>
     23c:	aa1f03f3 	mov	x19, xzr
     240:	52800076 	mov	w22, #0x3                   	// #3
     244:	b40002d9 	cbz	x25, 29c <stbi_zlib_compress+0x29c>
     248:	b85fc328 	ldur	w8, [x25,#-4]
     24c:	b9401fe9 	ldr	w9, [sp,#28]
     250:	d100233a 	sub	x26, x25, #0x8
     254:	6b09011f 	cmp	w8, w9
     258:	540000e1 	b.ne	274 <stbi_zlib_compress+0x274>
     25c:	a940a3e2 	ldp	x2, x8, [sp,#8]
     260:	aa1903e0 	mov	x0, x25
     264:	8b080f21 	add	x1, x25, x8, lsl #3
     268:	94000000 	bl	0 <memmove>
     26c:	b9401be8 	ldr	w8, [sp,#24]
     270:	b81fc328 	stur	w8, [x25,#-4]
     274:	b940034a 	ldr	w10, [x26]
     278:	11000509 	add	w9, w8, #0x1
     27c:	6b0a013f 	cmp	w9, w10
     280:	540003cb 	b.lt	2f8 <stbi_zlib_compress+0x2f8>
     284:	f9001ff5 	str	x21, [sp,#56]
     288:	b90037ff 	str	wzr, [sp,#52]
     28c:	b85f8f28 	ldr	w8, [x25,#-8]!
     290:	52800035 	mov	w21, #0x1                   	// #1
     294:	331f7915 	bfi	w21, w8, #1, #31
     298:	14000005 	b	2ac <stbi_zlib_compress+0x2ac>
     29c:	52800028 	mov	w8, #0x1                   	// #1
     2a0:	f9001ff5 	str	x21, [sp,#56]
     2a4:	b90037e8 	str	w8, [sp,#52]
     2a8:	52800055 	mov	w21, #0x2                   	// #2
     2ac:	531d72a8 	lsl	w8, w21, #3
     2b0:	93407d08 	sxtw	x8, w8
     2b4:	91002101 	add	x1, x8, #0x8
     2b8:	aa1903e0 	mov	x0, x25
     2bc:	94000000 	bl	0 <realloc>
     2c0:	b4006880 	cbz	x0, fd0 <stbi_zlib_compress+0xfd0>
     2c4:	b94037e8 	ldr	w8, [sp,#52]
     2c8:	aa0003fa 	mov	x26, x0
     2cc:	36000088 	tbz	w8, #0, 2dc <stbi_zlib_compress+0x2dc>
     2d0:	2a1f03e8 	mov	w8, wzr
     2d4:	b900075f 	str	wzr, [x26,#4]
